(lp1
(dp2
S'Topo'
p3
(dp4
S'stubs'
p5
(lp6
(dp7
S'routerId'
p8
V192.168.5.1
p9
sS'prefix'
p10
L3232236800L
sS'mask'
p11
V255.255.255.0
p12
sa(dp13
g8
V192.168.5.1
p14
sg10
L3232236544L
sg11
V255.255.255.0
p15
sa(dp16
g8
V192.168.5.2
p17
sg10
L3232238848L
sg11
V255.255.255.0
p18
sa(dp19
g8
V192.168.5.2
p20
sg10
L3232236800L
sg11
V255.255.255.0
p21
sa(dp22
g8
V192.168.6.2
p23
sg10
L3232237056L
sg11
V255.255.255.0
p24
sa(dp25
g8
V192.168.7.2
p26
sg10
L3232255744L
sg11
V255.255.255.0
p27
sa(dp28
g8
V192.168.7.2
p29
sg10
L3232242432L
sg11
V255.255.255.0
p30
sa(dp31
g8
V192.168.7.2
p32
sg10
L3232239872L
sg11
V255.255.255.0
p33
sa(dp34
g8
V192.168.7.2
p35
sg10
L3232238592L
sg11
V255.255.255.0
p36
sa(dp37
g8
V192.168.7.2
p38
sg10
L3232237312L
sg11
V255.255.255.0
p39
sa(dp40
g8
V192.168.11.1
p41
sg10
L3232238336L
sg11
V255.255.255.0
p42
sa(dp43
g8
V192.168.12.2
p44
sg10
L3232238592L
sg11
V255.255.255.0
p45
sa(dp46
g8
V192.168.12.2
p47
sg10
L3232238336L
sg11
V255.255.255.0
p48
sa(dp49
g8
V192.168.14.1
p50
sg10
L3232239104L
sg11
V255.255.255.0
p51
sa(dp52
g8
V192.168.14.1
p53
sg10
L3232238848L
sg11
V255.255.255.0
p54
sa(dp55
g8
V192.168.14.2
p56
sg10
L3232239104L
sg11
V255.255.255.0
p57
sa(dp58
g8
V192.168.29.1
p59
sg10
L3232242944L
sg11
V255.255.255.0
p60
sa(dp61
g8
V192.168.29.1
p62
sg10
L3232242432L
sg11
V255.255.255.0
p63
sa(dp64
g8
V192.168.29.1
p65
sg10
L3232237056L
sg11
V255.255.255.0
p66
sa(dp67
g8
V192.168.29.1
p68
sg10
L3232236288L
sg11
V255.255.255.0
p69
sa(dp70
g8
V192.168.29.1
p71
sg10
L3232236032L
sg11
V255.255.255.0
p72
sa(dp73
g8
V192.168.39.1
p74
sg10
L3232245504L
sg11
V255.255.255.0
p75
sa(dp76
g8
V192.168.39.1
p77
sg10
L3232238848L
sg11
V255.255.255.0
p78
sa(dp79
g8
V192.168.39.1
p80
sg10
L3232237312L
sg11
V255.255.255.0
p81
sa(dp82
g8
V192.168.39.1
p83
sg10
L3232236544L
sg11
V255.255.255.0
p84
sa(dp85
g8
V192.168.39.1
p86
sg10
L3232236288L
sg11
V255.255.255.0
p87
sa(dp88
g8
V192.168.79.2
p89
sg10
L3232255744L
sg11
V255.255.255.0
p90
sa(dp91
g8
V192.168.79.2
p92
sg10
L3232245504L
sg11
V255.255.255.0
p93
sa(dp94
g8
V192.168.79.2
p95
sg10
L3232242944L
sg11
V255.255.255.0
p96
sa(dp97
g8
V192.168.79.2
p98
sg10
L3232237824L
sg11
V255.255.255.0
p99
sa(dp100
g8
V192.168.99.99
p101
sg10
L3232260963L
sg11
V255.255.255.255
p102
sa(dp103
g8
V192.168.99.99
p104
sg10
L3232239872L
sg11
V255.255.255.0
p105
sa(dp106
g8
V192.168.99.99
p107
sg10
L3232238848L
sg11
V255.255.255.0
p108
sa(dp109
g8
V192.168.99.99
p110
sg10
L3232237824L
sg11
V255.255.255.0
p111
sa(dp112
g8
V192.168.99.99
p113
sg10
L3232236032L
sg11
V255.255.255.0
p114
sasS'nodes'
p115
(lp116
(dp117
g8
V192.168.99.99
p118
sS'neighbors'
p119
(lp120
(dp121
S'area'
p122
V0.0.0.0
p123
sS'metric'
p124
I64
sS'nRouterId'
p125
V192.168.5.2
p126
sg11
V255.255.255.0
p127
sS'interfaceIP'
p128
V192.168.5.1
p129
sS'id'
p130
I3410
sa(dp131
g122
V0.0.0.0
p132
sg124
I64
sg125
V192.168.39.1
p133
sg11
V255.255.255.0
p134
sg128
V192.168.4.2
p135
sg130
I3412
sa(dp136
g122
V0.0.0.0
p137
sg124
I64
sg125
V192.168.14.1
p138
sg11
V255.255.255.0
p139
sg128
V192.168.13.1
p140
sg130
I3414
sa(dp141
g122
V0.0.0.0
p142
sg124
I64
sg125
V192.168.5.1
p143
sg11
V255.255.255.0
p144
sg128
V192.168.5.2
p145
sg130
I3416
sa(dp146
g122
V0.0.0.0
p147
sg124
I64
sg125
V192.168.29.1
p148
sg11
V255.255.255.0
p149
sg128
V192.168.6.2
p150
sg130
I3418
sa(dp151
g122
V0.0.0.0
p152
sg124
I64
sg125
V192.168.79.2
p153
sg11
V255.255.255.0
p154
sg128
V192.168.79.1
p155
sg130
I3420
sa(dp156
g122
V0.0.0.0
p157
sg124
I64
sg125
V192.168.29.1
p158
sg11
V255.255.255.0
p159
sg128
V192.168.27.2
p160
sg130
I3422
sa(dp161
g122
V0.0.0.0
p162
sg124
I64
sg125
V192.168.99.99
p163
sg11
V255.255.255.0
p164
sg128
V192.168.17.2
p165
sg130
I3424
sa(dp166
g122
V0.0.0.0
p167
sg124
I64
sg125
V192.168.12.2
p168
sg11
V255.255.255.0
p169
sg128
V192.168.12.1
p170
sg130
I3426
sa(dp171
g122
V0.0.0.0
p172
sg124
I10
sg125
V192.168.39.1
p173
sg11
V255.255.255.0
p174
sg128
V192.168.7.2
p175
sg130
I3428
sa(dp176
g122
V0.0.0.0
p177
sg124
I64
sg125
V192.168.12.2
p178
sg11
V255.255.255.0
p179
sg128
V192.168.11.1
p180
sg130
I3430
sa(dp181
g122
V0.0.0.0
p182
sg124
I64
sg125
V192.168.7.2
p183
sg11
V255.255.255.0
p184
sg128
V192.168.12.2
p185
sg130
I3432
sa(dp186
g122
V0.0.0.0
p187
sg124
I64
sg125
V192.168.11.1
p188
sg11
V255.255.255.0
p189
sg128
V192.168.11.2
p190
sg130
I3434
sa(dp191
g122
V0.0.0.0
p192
sg124
I64
sg125
V192.168.14.2
p193
sg11
V255.255.255.0
p194
sg128
V192.168.14.1
p195
sg130
I3436
sa(dp196
g122
V0.0.0.0
p197
sg124
I64
sg125
V192.168.5.2
p198
sg11
V255.255.255.0
p199
sg128
V192.168.13.2
p200
sg130
I3438
sa(dp201
g122
V0.0.0.0
p202
sg124
I64
sg125
V192.168.14.1
p203
sg11
V255.255.255.0
p204
sg128
V192.168.14.2
p205
sg130
I3440
sa(dp206
g122
V0.0.0.0
p207
sg124
I64
sg125
V192.168.79.2
p208
sg11
V255.255.255.0
p209
sg128
V192.168.29.1
p210
sg130
I3442
sa(dp211
g122
V0.0.0.0
p212
sg124
I64
sg125
V192.168.7.2
p213
sg11
V255.255.255.0
p214
sg128
V192.168.27.1
p215
sg130
I3444
sa(dp216
g122
V0.0.0.0
p217
sg124
I64
sg125
V192.168.6.2
p218
sg11
V255.255.255.0
p219
sg128
V192.168.6.1
p220
sg130
I3446
sa(dp221
g122
V0.0.0.0
p222
sg124
I64
sg125
V192.168.39.1
p223
sg11
V255.255.255.0
p224
sg128
V192.168.3.1
p225
sg130
I3448
sa(dp226
g122
V0.0.0.0
p227
sg124
I64
sg125
V192.168.99.99
p228
sg11
V255.255.255.0
p229
sg128
V192.168.2.2
p230
sg130
I3450
sa(dp231
g122
V0.0.0.0
p232
sg124
I64
sg125
V192.168.79.2
p233
sg11
V255.255.255.0
p234
sg128
V192.168.39.1
p235
sg130
I3452
sa(dp236
g122
V0.0.0.0
p237
sg124
I64
sg125
V192.168.99.99
p238
sg11
V255.255.255.0
p239
sg128
V192.168.13.2
p240
sg130
I3454
sa(dp241
g122
V0.0.0.0
p242
sg124
I64
sg125
V192.168.7.2
p243
sg11
V255.255.255.0
p244
sg128
V192.168.7.1
p245
sg130
I3456
sa(dp246
g122
V0.0.0.0
p247
sg124
I64
sg125
V192.168.5.1
p248
sg11
V255.255.255.0
p249
sg128
V192.168.4.1
p250
sg130
I3458
sa(dp251
g122
V0.0.0.0
p252
sg124
I64
sg125
V192.168.29.1
p253
sg11
V255.255.255.0
p254
sg128
V192.168.3.2
p255
sg130
I3460
sa(dp256
g122
V0.0.0.0
p257
sg124
I64
sg125
V192.168.7.2
p258
sg11
V255.255.255.0
p259
sg128
V192.168.79.2
p260
sg130
I3462
sa(dp261
g122
V0.0.0.0
p262
sg124
I64
sg125
V192.168.39.1
p263
sg11
V255.255.255.0
p264
sg128
V192.168.39.2
p265
sg130
I3464
sa(dp266
g122
V0.0.0.0
p267
sg124
I64
sg125
V192.168.29.1
p268
sg11
V255.255.255.0
p269
sg128
V192.168.29.2
p270
sg130
I3466
sa(dp271
g122
V0.0.0.0
p272
sg124
I64
sg125
V192.168.99.99
p273
sg11
V255.255.255.0
p274
sg128
V192.168.9.2
p275
sg130
I3468
sa(dp276
g122
V0.0.0.0
p277
sg124
I64
sg125
V192.168.7.2
p278
sg11
V255.255.255.0
p279
sg128
V192.168.17.1
p280
sg130
I3471
sa(dp281
g122
V0.0.0.0
p282
sg124
I64
sg125
V192.168.39.1
p283
sg11
V255.255.255.0
p284
sg128
V192.168.13.1
p285
sg130
I3473
sa(dp286
g122
V0.0.0.0
p287
sg124
I64
sg125
V192.168.79.2
p288
sg11
V255.255.255.0
p289
sg128
V192.168.9.1
p290
sg130
I3475
sa(dp291
g122
V0.0.0.0
p292
sg124
I64
sg125
V192.168.29.1
p293
sg11
V255.255.255.0
p294
sg128
V192.168.2.1
p295
sg130
I3477
sasasS'InterLink'
p296
(lp297
(dp298
S'linkId'
p299
I3233
sg124
I20
sg125
V192.168.100.2
p300
sg11
V255.255.255.0
p301
sg8
V192.168.39.1
p302
sg128
V192.168.39.1
p303
sS'nAsNumber'
p304
I2
sa(dp305
g299
I3485
sg124
I10
sg125
V192.168.100.1
p306
sg11
V255.255.255.0
p307
sg8
V192.168.99.99
p308
sg128
V192.168.1.1
p309
sg304
I2
sassS'asNumber'
p310
I1
sS'OuterInfo'
p311
(dp312
S'BGP'
p313
(lp314
sS'ExternalLsa'
p315
(lp316
(dp317
S'externalType'
p318
I2
sg124
I0
sS'advRouter'
p319
V192.168.99.99
p320
sS'networkMask'
p321
V255.255.255.0
p322
sS'forwardingAddress'
p323
V192.168.1.110
p324
sS'linkStateId'
p325
V192.168.100.0
p326
sassa(dp327
g3
(dp328
g5
(lp329
(dp330
g8
V192.168.100.2
p331
sg10
L3232263680L
sg11
V255.255.255.0
p332
sasg115
(lp333
(dp334
g8
V192.168.100.1
p335
sg119
(lp336
(dp337
g122
V0.0.0.0
p338
sg124
I10
sg125
V192.168.100.1
p339
sg11
V255.255.255.0
p340
sg128
V192.168.100.2
p341
sg130
I2871
sa(dp342
g122
V0.0.0.0
p343
sg124
I1
sg125
V192.168.100.2
p344
sg11
V255.255.255.0
p345
sg128
V192.168.100.1
p346
sg130
I2872
sasasg296
(lp347
(dp348
g299
I2797
sg124
I10
sg125
V192.168.17.1
p349
sg11
V255.255.255.0
p350
sg8
V192.168.100.1
p351
sg128
V192.168.1.110
p352
sg304
I1
sa(dp353
g299
I2812
sg124
I20
sg125
V192.168.39.1
p354
sg11
V255.255.255.0
p355
sg8
V192.168.100.2
p356
sg128
V192.168.100.2
p357
sg304
I1
sa(dp358
g299
I2868
sg124
I10
sg125
V192.168.17.1
p359
sg11
V255.255.255.0
p360
sg8
V192.168.100.1
p361
sg128
V192.168.1.110
p362
sg304
I1
sa(dp363
g299
I2873
sg124
I30
sg125
V192.168.79.2
p364
sg11
V255.255.255.0
p365
sg8
V192.168.100.2
p366
sg128
V192.168.100.2
p367
sg304
I1
sassg310
I2
sg311
(dp368
g313
(lp369
sg315
(lp370
(dp371
g318
I2
sg124
I0
sg319
V192.168.100.1
p372
sg321
V255.255.255.0
p373
sg323
V0.0.0.0
p374
sg325
V192.168.2.0
p375
sa(dp376
g318
I2
sg124
I0
sg319
V192.168.100.1
p377
sg321
V255.255.255.0
p378
sg323
V0.0.0.0
p379
sg325
V192.168.3.0
p380
sa(dp381
g318
I2
sg124
I0
sg319
V192.168.100.1
p382
sg321
V255.255.255.0
p383
sg323
V0.0.0.0
p384
sg325
V192.168.4.0
p385
sa(dp386
g318
I2
sg124
I0
sg319
V192.168.100.1
p387
sg321
V255.255.255.0
p388
sg323
V0.0.0.0
p389
sg325
V192.168.5.0
p390
sa(dp391
g318
I2
sg124
I0
sg319
V192.168.100.1
p392
sg321
V255.255.255.0
p393
sg323
V0.0.0.0
p394
sg325
V192.168.6.0
p395
sa(dp396
g318
I2
sg124
I0
sg319
V192.168.100.1
p397
sg321
V255.255.255.0
p398
sg323
V0.0.0.0
p399
sg325
V192.168.7.0
p400
sa(dp401
g318
I2
sg124
I0
sg319
V192.168.100.1
p402
sg321
V255.255.255.0
p403
sg323
V0.0.0.0
p404
sg325
V192.168.9.0
p405
sa(dp406
g318
I2
sg124
I0
sg319
V192.168.100.1
p407
sg321
V255.255.255.0
p408
sg323
V0.0.0.0
p409
sg325
V192.168.11.0
p410
sa(dp411
g318
I2
sg124
I0
sg319
V192.168.100.1
p412
sg321
V255.255.255.0
p413
sg323
V0.0.0.0
p414
sg325
V192.168.12.0
p415
sa(dp416
g318
I2
sg124
I0
sg319
V192.168.100.1
p417
sg321
V255.255.255.0
p418
sg323
V0.0.0.0
p419
sg325
V192.168.13.0
p420
sa(dp421
g318
I2
sg124
I0
sg319
V192.168.100.1
p422
sg321
V255.255.255.0
p423
sg323
V0.0.0.0
p424
sg325
V192.168.14.0
p425
sa(dp426
g318
I2
sg124
I0
sg319
V192.168.100.1
p427
sg321
V255.255.255.0
p428
sg323
V0.0.0.0
p429
sg325
V192.168.17.0
p430
sa(dp431
g318
I2
sg124
I0
sg319
V192.168.100.1
p432
sg321
V255.255.255.0
p433
sg323
V0.0.0.0
p434
sg325
V192.168.27.0
p435
sa(dp436
g318
I2
sg124
I0
sg319
V192.168.100.1
p437
sg321
V255.255.255.0
p438
sg323
V0.0.0.0
p439
sg325
V192.168.29.0
p440
sa(dp441
g318
I2
sg124
I0
sg319
V192.168.100.1
p442
sg321
V255.255.255.0
p443
sg323
V0.0.0.0
p444
sg325
V192.168.39.0
p445
sa(dp446
g318
I2
sg124
I0
sg319
V192.168.100.1
p447
sg321
V255.255.255.0
p448
sg323
V0.0.0.0
p449
sg325
V192.168.79.0
p450
sassa.