(lp1
(dp2
S'Topo'
p3
(dp4
S'stubs'
p5
(lp6
(dp7
S'routerId'
p8
V192.168.2.1
p9
sS'prefix'
p10
L3232243456L
sS'mask'
p11
V255.255.255.0
p12
sa(dp13
g8
V192.168.2.1
p14
sg10
L3232239872L
sg11
V255.255.255.0
p15
sa(dp16
g8
V192.168.2.1
p17
sg10
L3232237824L
sg11
V255.255.255.0
p18
sa(dp19
g8
V192.168.2.1
p20
sg10
L3232236032L
sg11
V255.255.255.0
p21
sa(dp22
g8
V192.168.2.2
p23
sg10
L3232242944L
sg11
V255.255.255.0
p24
sa(dp25
g8
V192.168.2.2
p26
sg10
L3232242432L
sg11
V255.255.255.0
p27
sa(dp28
g8
V192.168.2.2
p29
sg10
L3232236288L
sg11
V255.255.255.0
p30
sa(dp31
g8
V192.168.2.2
p32
sg10
L3232236032L
sg11
V255.255.255.0
p33
sa(dp34
g8
V192.168.5.1
p35
sg10
L3232236800L
sg11
V255.255.255.0
p36
sa(dp37
g8
V192.168.5.1
p38
sg10
L3232236544L
sg11
V255.255.255.0
p39
sa(dp40
g8
V192.168.5.2
p41
sg10
L3232236800L
sg11
V255.255.255.0
p42
sa(dp43
g8
V192.168.6.2
p44
sg10
L3232237056L
sg11
V255.255.255.0
p45
sa(dp46
g8
V192.168.7.2
p47
sg10
L3232255744L
sg11
V255.255.255.0
p48
sa(dp49
g8
V192.168.7.2
p50
sg10
L3232242432L
sg11
V255.255.255.0
p51
sa(dp52
g8
V192.168.7.2
p53
sg10
L3232239872L
sg11
V255.255.255.0
p54
sa(dp55
g8
V192.168.7.2
p56
sg10
L3232238592L
sg11
V255.255.255.0
p57
sa(dp58
g8
V192.168.7.2
p59
sg10
L3232237312L
sg11
V255.255.255.0
p60
sa(dp61
g8
V192.168.10.2
p62
sg10
L3232238080L
sg11
V255.255.255.0
p63
sa(dp64
g8
V192.168.23.1
p65
sg10
L3232238592L
sg11
V255.255.255.0
p66
sa(dp67
g8
V192.168.39.1
p68
sg10
L3232245504L
sg11
V255.255.255.0
p69
sa(dp70
g8
V192.168.39.1
p71
sg10
L3232237312L
sg11
V255.255.255.0
p72
sa(dp73
g8
V192.168.39.1
p74
sg10
L3232236544L
sg11
V255.255.255.0
p75
sa(dp76
g8
V192.168.39.1
p77
sg10
L3232236288L
sg11
V255.255.255.0
p78
sa(dp79
g8
V192.168.79.2
p80
sg10
L3232255744L
sg11
V255.255.255.0
p81
sa(dp82
g8
V192.168.79.2
p83
sg10
L3232245504L
sg11
V255.255.255.0
p84
sa(dp85
g8
V192.168.79.2
p86
sg10
L3232242944L
sg11
V255.255.255.0
p87
sa(dp88
g8
V192.168.79.2
p89
sg10
L3232238080L
sg11
V255.255.255.0
p90
sa(dp91
g8
V192.168.79.2
p92
sg10
L3232237824L
sg11
V255.255.255.0
p93
sa(dp94
g8
V192.168.2.2
p95
sg10
L3232237056L
sg11
V255.255.255.0
p96
sasS'nodes'
p97
(lp98
(dp99
g8
V192.168.2.1
p100
sS'neighbors'
p101
(lp102
(dp103
S'area'
p104
V0.0.0.0
p105
sS'metric'
p106
I64
sS'nRouterId'
p107
V192.168.7.2
p108
sg11
V255.255.255.0
p109
sS'interfaceIP'
p110
V192.168.17.1
p111
sS'id'
p112
I474
sa(dp113
g104
V0.0.0.0
p114
sg106
I64
sg107
V192.168.79.2
p115
sg11
V255.255.255.0
p116
sg110
V192.168.9.1
p117
sg112
I476
sa(dp118
g104
V0.0.0.0
p119
sg106
I64
sg107
V192.168.2.2
p120
sg11
V255.255.255.0
p121
sg110
V192.168.2.1
p122
sg112
I478
sasa(dp123
g8
V192.168.2.2
p124
sg101
(lp125
(dp126
g104
V0.0.0.0
p127
sg106
I64
sg107
V192.168.79.2
p128
sg11
V255.255.255.0
p129
sg110
V192.168.29.1
p130
sg112
I481
sa(dp131
g104
V0.0.0.0
p132
sg106
I64
sg107
V192.168.7.2
p133
sg11
V255.255.255.0
p134
sg110
V192.168.27.1
p135
sg112
I483
sa(dp136
g104
V0.0.0.0
p137
sg106
I64
sg107
V192.168.39.1
p138
sg11
V255.255.255.0
p139
sg110
V192.168.3.1
p140
sg112
I487
sa(dp141
g104
V0.0.0.0
p142
sg106
I64
sg107
V192.168.2.1
p143
sg11
V255.255.255.0
p144
sg110
V192.168.2.2
p145
sg112
I489
sa(dp146
g104
V0.0.0.0
p147
sg106
I64
sg107
V192.168.6.2
p148
sg11
V255.255.255.0
p149
sg110
V192.168.6.1
p150
sg112
I532
sasa(dp151
g8
V192.168.6.2
p152
sg101
(lp153
(dp154
g104
V0.0.0.0
p155
sg106
I64
sg107
V192.168.2.2
p156
sg11
V255.255.255.0
p157
sg110
V192.168.6.2
p158
sg112
I534
sasa(dp159
g8
V192.168.5.2
p160
sg101
(lp161
(dp162
g104
V0.0.0.0
p163
sg106
I64
sg107
V192.168.5.1
p164
sg11
V255.255.255.0
p165
sg110
V192.168.5.2
p166
sg112
I495
sasa(dp167
g8
V192.168.5.1
p168
sg101
(lp169
(dp170
g104
V0.0.0.0
p171
sg106
I64
sg107
V192.168.5.2
p172
sg11
V255.255.255.0
p173
sg110
V192.168.5.1
p174
sg112
I491
sa(dp175
g104
V0.0.0.0
p176
sg106
I64
sg107
V192.168.39.1
p177
sg11
V255.255.255.0
p178
sg110
V192.168.4.2
p179
sg112
I493
sasa(dp180
g8
V192.168.23.1
p181
sg101
(lp182
(dp183
g104
V0.0.0.0
p184
sg106
I64
sg107
V192.168.7.2
p185
sg11
V255.255.255.0
p186
sg110
V192.168.12.2
p187
sg112
I511
sasa(dp188
g8
V192.168.39.1
p189
sg101
(lp190
(dp191
g104
V0.0.0.0
p192
sg106
I64
sg107
V192.168.79.2
p193
sg11
V255.255.255.0
p194
sg110
V192.168.39.1
p195
sg112
I513
sa(dp196
g104
V0.0.0.0
p197
sg106
I64
sg107
V192.168.7.2
p198
sg11
V255.255.255.0
p199
sg110
V192.168.7.1
p200
sg112
I515
sa(dp201
g104
V0.0.0.0
p202
sg106
I64
sg107
V192.168.5.1
p203
sg11
V255.255.255.0
p204
sg110
V192.168.4.1
p205
sg112
I517
sa(dp206
g104
V0.0.0.0
p207
sg106
I64
sg107
V192.168.2.2
p208
sg11
V255.255.255.0
p209
sg110
V192.168.3.2
p210
sg112
I519
sasa(dp211
g8
V192.168.79.2
p212
sg101
(lp213
(dp214
g104
V0.0.0.0
p215
sg106
I64
sg107
V192.168.7.2
p216
sg11
V255.255.255.0
p217
sg110
V192.168.79.2
p218
sg112
I521
sa(dp219
g104
V0.0.0.0
p220
sg106
I64
sg107
V192.168.39.1
p221
sg11
V255.255.255.0
p222
sg110
V192.168.39.2
p223
sg112
I523
sa(dp224
g104
V0.0.0.0
p225
sg106
I64
sg107
V192.168.2.2
p226
sg11
V255.255.255.0
p227
sg110
V192.168.29.2
p228
sg112
I525
sa(dp229
g104
V0.0.0.0
p230
sg106
I64
sg107
V192.168.10.2
p231
sg11
V255.255.255.0
p232
sg110
V192.168.10.1
p233
sg112
I527
sa(dp234
g104
V0.0.0.0
p235
sg106
I64
sg107
V192.168.2.1
p236
sg11
V255.255.255.0
p237
sg110
V192.168.9.2
p238
sg112
I529
sasa(dp239
g8
V192.168.7.2
p240
sg101
(lp241
(dp242
g104
V0.0.0.0
p243
sg106
I64
sg107
V192.168.79.2
p244
sg11
V255.255.255.0
p245
sg110
V192.168.79.1
p246
sg112
I499
sa(dp247
g104
V0.0.0.0
p248
sg106
I64
sg107
V192.168.2.2
p249
sg11
V255.255.255.0
p250
sg110
V192.168.27.2
p251
sg112
I501
sa(dp252
g104
V0.0.0.0
p253
sg106
I64
sg107
V192.168.2.1
p254
sg11
V255.255.255.0
p255
sg110
V192.168.17.2
p256
sg112
I503
sa(dp257
g104
V0.0.0.0
p258
sg106
I64
sg107
V192.168.23.1
p259
sg11
V255.255.255.0
p260
sg110
V192.168.12.1
p261
sg112
I505
sa(dp262
g104
V0.0.0.0
p263
sg106
I10
sg107
V192.168.39.1
p264
sg11
V255.255.255.0
p265
sg110
V192.168.7.2
p266
sg112
I507
sasa(dp267
g8
V192.168.10.2
p268
sg101
(lp269
(dp270
g104
V0.0.0.0
p271
sg106
I64
sg107
V192.168.79.2
p272
sg11
V255.255.255.0
p273
sg110
V192.168.10.2
p274
sg112
I509
sasasS'InterLink'
p275
(lp276
(dp277
S'linkId'
p278
I6372
sg106
I50
sg107
V192.168.11.1
p279
sg11
V255.255.255.0
p280
sg8
V192.168.5.2
p281
sg110
V192.168.51.1
p282
sS'nAsNumber'
p283
I2
sa(dp284
g278
I6373
sg106
I20
sg107
V192.168.11.1
p285
sg11
V255.255.255.0
p286
sg8
V192.168.23.1
p287
sg110
V192.168.11.2
p288
sg283
I2
sa(dp289
g278
I6374
sg106
I40
sg107
V192.168.13.2
p290
sg11
V255.255.255.0
p291
sg8
V192.168.5.2
p292
sg110
V192.168.13.1
p293
sg283
I2
sa(dp294
g278
I6375
sg106
I30
sg107
V192.168.13.2
p295
sg11
V255.255.255.0
p296
sg8
V192.168.23.1
p297
sg110
V192.168.23.1
p298
sg283
I2
sassS'asNumber'
p299
I1
sS'OuterInfo'
p300
(dp301
S'BGP'
p302
(lp303
(dp304
S'origin'
p305
I2
sS'med'
p306
I257
sg10
V192.168.1.0
p307
sS'aspath'
p308
S''
sS'localPreference'
p309
I200
sS'weight'
p310
I0
sS'nexthop'
p311
V192.168.5.1
p312
sS'length'
p313
I24
sa(dp314
g305
I2
sg306
I257
sg10
V192.168.99.99
p315
sg308
S''
sg309
I200
sg310
I0
sg311
V192.168.5.1
p316
sg313
I32
sa(dp317
g305
I0
sg306
I0
sg10
V192.168.51.0
p318
sg308
S''
sg309
I200
sg310
I0
sg311
V192.168.13.1
p319
sg313
I24
sa(dp320
g305
I0
sg306
I0
sg10
V192.168.13.0
p321
sg308
S''
sg309
I200
sg310
I0
sg311
V192.168.13.1
p322
sg313
I24
sa(dp323
g305
I2
sg306
I0
sg10
V192.168.5.0
p324
sg308
S''
sg309
I200
sg310
I0
sg311
V192.168.13.1
p325
sg313
I24
sa(dp326
g305
I2
sg306
I128
sg10
V192.168.4.0
p327
sg308
S''
sg309
I200
sg310
I0
sg311
V192.168.5.1
p328
sg313
I24
sa(dp329
g305
I2
sg306
I192
sg10
V192.168.39.0
p330
sg308
S''
sg309
I200
sg310
I0
sg311
V192.168.5.1
p331
sg313
I24
sa(dp332
g305
I2
sg306
I192
sg10
V192.168.7.0
p333
sg308
S''
sg309
I200
sg310
I0
sg311
V192.168.5.1
p334
sg313
I24
sa(dp335
g305
I2
sg306
I192
sg10
V192.168.3.0
p336
sg308
S''
sg309
I200
sg310
I0
sg311
V192.168.5.1
p337
sg313
I24
sa(dp338
g305
I2
sg306
I256
sg10
V192.168.79.0
p339
sg308
S''
sg309
I200
sg310
I0
sg311
V192.168.5.1
p340
sg313
I24
sa(dp341
g305
I2
sg306
I256
sg10
V192.168.29.0
p342
sg308
S''
sg309
I200
sg310
I0
sg311
V192.168.5.1
p343
sg313
I24
sa(dp344
g305
I2
sg306
I256
sg10
V192.168.27.0
p345
sg308
S''
sg309
I200
sg310
I0
sg311
V192.168.5.1
p346
sg313
I24
sa(dp347
g305
I2
sg306
I256
sg10
V192.168.17.0
p348
sg308
S''
sg309
I200
sg310
I0
sg311
V192.168.5.1
p349
sg313
I24
sa(dp350
g305
I2
sg306
I256
sg10
V192.168.12.0
p351
sg308
S''
sg309
I200
sg310
I0
sg311
V192.168.5.1
p352
sg313
I24
sa(dp353
g305
I2
sg306
I256
sg10
V192.168.10.0
p354
sg308
S''
sg309
I200
sg310
I0
sg311
V192.168.5.1
p355
sg313
I24
sa(dp356
g305
I2
sg306
I256
sg10
V192.168.9.0
p357
sg308
S''
sg309
I200
sg310
I0
sg311
V192.168.5.1
p358
sg313
I24
sa(dp359
g305
I2
sg306
I256
sg10
V192.168.6.0
p360
sg308
S''
sg309
I200
sg310
I0
sg311
V192.168.5.1
p361
sg313
I24
sa(dp362
g305
I2
sg306
I256
sg10
V192.168.2.0
p363
sg308
S''
sg309
I200
sg310
I0
sg311
V192.168.5.1
p364
sg313
I24
sa(dp365
g305
I2
sg306
I0
sg10
V192.168.14.0
p366
sg308
S''
sg309
I200
sg310
I0
sg311
V192.168.13.2
p367
sg313
I24
sa(dp368
g305
I2
sg306
I0
sg10
V192.168.31.0
p369
sg308
S''
sg309
I200
sg310
I0
sg311
V192.168.13.2
p370
sg313
I24
sa(dp371
g305
I2
sg306
I3
sg10
V10.21.3.0
p372
sg308
S''
sg309
I200
sg310
I0
sg311
V192.168.13.2
p373
sg313
I24
sa(dp374
g305
I2
sg306
I2
sg10
V192.168.41.0
p375
sg308
S''
sg309
I200
sg310
I0
sg311
V192.168.13.2
p376
sg313
I24
sa(dp377
g305
I0
sg306
I0
sg10
V172.168.2.0
p378
sg308
S''
sg309
I200
sg310
I0
sg311
V192.168.13.2
p379
sg313
I24
sa(dp380
g305
I0
sg306
I0
sg10
V192.168.23.0
p381
sg308
S''
sg309
I200
sg310
I0
sg311
V192.168.13.2
p382
sg313
I24
sa(dp383
g305
I0
sg306
I0
sg10
V192.168.11.0
p384
sg308
S''
sg309
I200
sg310
I0
sg311
V192.168.51.2
p385
sg313
I24
sa(dp386
g305
I2
sg306
I129
sg10
V192.168.1.0
p387
sg308
S''
sg309
I100
sg310
I0
sg311
V192.168.12.1
p388
sg313
I24
sa(dp389
g305
I2
sg306
I129
sg10
V192.168.99.99
p390
sg308
S''
sg309
I100
sg310
I0
sg311
V192.168.12.1
p391
sg313
I32
sa(dp392
g305
I0
sg306
I0
sg10
V192.168.23.0
p393
sg308
S''
sg309
I100
sg310
I0
sg311
V192.168.11.2
p394
sg313
I24
sa(dp395
g305
I0
sg306
I0
sg10
V192.168.11.0
p396
sg308
S''
sg309
I100
sg310
I0
sg311
V192.168.11.2
p397
sg313
I24
sa(dp398
g305
I2
sg306
I0
sg10
V192.168.12.0
p399
sg308
S''
sg309
I100
sg310
I0
sg311
V192.168.11.2
p400
sg313
I24
sa(dp401
g305
I2
sg306
I74
sg10
V192.168.7.0
p402
sg308
S''
sg309
I100
sg310
I0
sg311
V192.168.12.1
p403
sg313
I24
sa(dp404
g305
I2
sg306
I128
sg10
V192.168.79.0
p405
sg308
S''
sg309
I100
sg310
I0
sg311
V192.168.12.1
p406
sg313
I24
sa(dp407
g305
I2
sg306
I128
sg10
V192.168.27.0
p408
sg308
S''
sg309
I100
sg310
I0
sg311
V192.168.12.1
p409
sg313
I24
sa(dp410
g305
I2
sg306
I128
sg10
V192.168.17.0
p411
sg308
S''
sg309
I100
sg310
I0
sg311
V192.168.12.1
p412
sg313
I24
sa(dp413
g305
I2
sg306
I138
sg10
V192.168.39.0
p414
sg308
S''
sg309
I100
sg310
I0
sg311
V192.168.12.1
p415
sg313
I24
sa(dp416
g305
I2
sg306
I138
sg10
V192.168.4.0
p417
sg308
S''
sg309
I100
sg310
I0
sg311
V192.168.12.1
p418
sg313
I24
sa(dp419
g305
I2
sg306
I138
sg10
V192.168.3.0
p420
sg308
S''
sg309
I100
sg310
I0
sg311
V192.168.12.1
p421
sg313
I24
sa(dp422
g305
I2
sg306
I192
sg10
V192.168.29.0
p423
sg308
S''
sg309
I100
sg310
I0
sg311
V192.168.12.1
p424
sg313
I24
sa(dp425
g305
I2
sg306
I192
sg10
V192.168.10.0
p426
sg308
S''
sg309
I100
sg310
I0
sg311
V192.168.12.1
p427
sg313
I24
sa(dp428
g305
I2
sg306
I192
sg10
V192.168.9.0
p429
sg308
S''
sg309
I100
sg310
I0
sg311
V192.168.12.1
p430
sg313
I24
sa(dp431
g305
I2
sg306
I192
sg10
V192.168.6.0
p432
sg308
S''
sg309
I100
sg310
I0
sg311
V192.168.12.1
p433
sg313
I24
sa(dp434
g305
I2
sg306
I192
sg10
V192.168.2.0
p435
sg308
S''
sg309
I100
sg310
I0
sg311
V192.168.12.1
p436
sg313
I24
sa(dp437
g305
I2
sg306
I202
sg10
V192.168.5.0
p438
sg308
S''
sg309
I100
sg310
I0
sg311
V192.168.12.1
p439
sg313
I24
sa(dp440
g305
I2
sg306
I0
sg10
V192.168.14.0
p441
sg308
S''
sg309
I100
sg310
I0
sg311
V192.168.23.2
p442
sg313
I24
sa(dp443
g305
I2
sg306
I0
sg10
V192.168.31.0
p444
sg308
S''
sg309
I100
sg310
I0
sg311
V192.168.11.1
p445
sg313
I24
sa(dp446
g305
I2
sg306
I0
sg10
V192.168.41.0
p447
sg308
S''
sg309
I100
sg310
I0
sg311
V192.168.11.1
p448
sg313
I24
sa(dp449
g305
I2
sg306
I2
sg10
V10.21.3.0
p450
sg308
S''
sg309
I100
sg310
I0
sg311
V192.168.11.1
p451
sg313
I24
sa(dp452
g305
I0
sg306
I0
sg10
V172.168.2.0
p453
sg308
S''
sg309
I100
sg310
I0
sg311
V192.168.23.2
p454
sg313
I24
sa(dp455
g305
I0
sg306
I0
sg10
V192.168.13.0
p456
sg308
S''
sg309
I100
sg310
I0
sg311
V192.168.23.2
p457
sg313
I24
sa(dp458
g305
I0
sg306
I0
sg10
V192.168.51.0
p459
sg308
S''
sg309
I100
sg310
I0
sg311
V192.168.11.1
p460
sg313
I24
sa(dp461
g305
I2
sg306
I0
sg10
V172.168.17.0
p462
sg308
S''
sg309
I100
sg310
I0
sg311
V192.168.23.2
p463
sg313
I24
sa(dp464
g305
I2
sg306
I0
sg10
V172.168.16.0
p465
sg308
S''
sg309
I100
sg310
I0
sg311
V192.168.23.2
p466
sg313
I24
sa(dp467
g305
I2
sg306
I0
sg10
V172.168.15.0
p468
sg308
S''
sg309
I100
sg310
I0
sg311
V192.168.23.2
p469
sg313
I24
sa(dp470
g305
I2
sg306
I0
sg10
V172.168.1.0
p471
sg308
S''
sg309
I100
sg310
I0
sg311
V192.168.23.2
p472
sg313
I24
sa(dp473
g305
I2
sg306
I0
sg10
V172.168.17.0
p474
sg308
S''
sg309
I200
sg310
I0
sg311
V192.168.13.2
p475
sg313
I24
sa(dp476
g305
I2
sg306
I0
sg10
V172.168.16.0
p477
sg308
S''
sg309
I200
sg310
I0
sg311
V192.168.13.2
p478
sg313
I24
sa(dp479
g305
I2
sg306
I0
sg10
V172.168.15.0
p480
sg308
S''
sg309
I200
sg310
I0
sg311
V192.168.13.2
p481
sg313
I24
sa(dp482
g305
I2
sg306
I0
sg10
V172.168.1.0
p483
sg308
S''
sg309
I200
sg310
I0
sg311
V192.168.13.2
p484
sg313
I24
sa(dp485
g305
I0
sg306
I0
sg10
V192.168.51.0
p486
sg308
S''
sg309
I200
sg310
I0
sg311
V192.168.13.1
p487
sg313
I24
sa(dp488
g305
I0
sg306
I0
sg10
V192.168.13.0
p489
sg308
S''
sg309
I200
sg310
I0
sg311
V192.168.13.1
p490
sg313
I24
sa(dp491
g305
I2
sg306
I0
sg10
V192.168.5.0
p492
sg308
S''
sg309
I200
sg310
I0
sg311
V192.168.13.1
p493
sg313
I24
sa(dp494
g305
I2
sg306
I128
sg10
V192.168.4.0
p495
sg308
S''
sg309
I200
sg310
I0
sg311
V192.168.5.1
p496
sg313
I24
sa(dp497
g305
I2
sg306
I192
sg10
V192.168.39.0
p498
sg308
S''
sg309
I200
sg310
I0
sg311
V192.168.5.1
p499
sg313
I24
sa(dp500
g305
I2
sg306
I192
sg10
V192.168.7.0
p501
sg308
S''
sg309
I200
sg310
I0
sg311
V192.168.5.1
p502
sg313
I24
sa(dp503
g305
I2
sg306
I192
sg10
V192.168.3.0
p504
sg308
S''
sg309
I200
sg310
I0
sg311
V192.168.5.1
p505
sg313
I24
sa(dp506
g305
I2
sg306
I256
sg10
V192.168.79.0
p507
sg308
S''
sg309
I200
sg310
I0
sg311
V192.168.5.1
p508
sg313
I24
sa(dp509
g305
I2
sg306
I256
sg10
V192.168.29.0
p510
sg308
S''
sg309
I200
sg310
I0
sg311
V192.168.5.1
p511
sg313
I24
sa(dp512
g305
I2
sg306
I256
sg10
V192.168.27.0
p513
sg308
S''
sg309
I200
sg310
I0
sg311
V192.168.5.1
p514
sg313
I24
sa(dp515
g305
I2
sg306
I256
sg10
V192.168.17.0
p516
sg308
S''
sg309
I200
sg310
I0
sg311
V192.168.5.1
p517
sg313
I24
sa(dp518
g305
I2
sg306
I256
sg10
V192.168.12.0
p519
sg308
S''
sg309
I200
sg310
I0
sg311
V192.168.5.1
p520
sg313
I24
sa(dp521
g305
I2
sg306
I256
sg10
V192.168.10.0
p522
sg308
S''
sg309
I200
sg310
I0
sg311
V192.168.5.1
p523
sg313
I24
sa(dp524
g305
I2
sg306
I256
sg10
V192.168.9.0
p525
sg308
S''
sg309
I200
sg310
I0
sg311
V192.168.5.1
p526
sg313
I24
sa(dp527
g305
I2
sg306
I256
sg10
V192.168.6.0
p528
sg308
S''
sg309
I200
sg310
I0
sg311
V192.168.5.1
p529
sg313
I24
sa(dp530
g305
I2
sg306
I256
sg10
V192.168.2.0
p531
sg308
S''
sg309
I200
sg310
I0
sg311
V192.168.5.1
p532
sg313
I24
sa(dp533
g305
I2
sg306
I257
sg10
V192.168.1.0
p534
sg308
S''
sg309
I200
sg310
I0
sg311
V192.168.5.1
p535
sg313
I24
sa(dp536
g305
I2
sg306
I257
sg10
V192.168.99.99
p537
sg308
S''
sg309
I200
sg310
I0
sg311
V192.168.5.1
p538
sg313
I32
sa(dp539
g305
I2
sg306
I0
sg10
V172.168.17.0
p540
sg308
S''
sg309
I200
sg310
I0
sg311
V192.168.13.2
p541
sg313
I24
sa(dp542
g305
I2
sg306
I0
sg10
V172.168.16.0
p543
sg308
S''
sg309
I200
sg310
I0
sg311
V192.168.13.2
p544
sg313
I24
sa(dp545
g305
I2
sg306
I0
sg10
V172.168.15.0
p546
sg308
S''
sg309
I200
sg310
I0
sg311
V192.168.13.2
p547
sg313
I24
sa(dp548
g305
I2
sg306
I0
sg10
V172.168.1.0
p549
sg308
S''
sg309
I200
sg310
I0
sg311
V192.168.13.2
p550
sg313
I24
sa(dp551
g305
I2
sg306
I0
sg10
V192.168.14.0
p552
sg308
S''
sg309
I200
sg310
I0
sg311
V192.168.13.2
p553
sg313
I24
sa(dp554
g305
I2
sg306
I0
sg10
V192.168.31.0
p555
sg308
S''
sg309
I200
sg310
I0
sg311
V192.168.13.2
p556
sg313
I24
sa(dp557
g305
I2
sg306
I2
sg10
V192.168.41.0
p558
sg308
S''
sg309
I200
sg310
I0
sg311
V192.168.13.2
p559
sg313
I24
sa(dp560
g305
I0
sg306
I0
sg10
V172.168.2.0
p561
sg308
S''
sg309
I200
sg310
I0
sg311
V192.168.13.2
p562
sg313
I24
sa(dp563
g305
I0
sg306
I0
sg10
V192.168.23.0
p564
sg308
S''
sg309
I200
sg310
I0
sg311
V192.168.13.2
p565
sg313
I24
sa(dp566
g305
I0
sg306
I0
sg10
V192.168.11.0
p567
sg308
S''
sg309
I200
sg310
I0
sg311
V192.168.51.2
p568
sg313
I24
sa(dp569
g305
I0
sg306
I0
sg10
V192.168.23.0
p570
sg308
S''
sg309
I100
sg310
I0
sg311
V192.168.11.2
p571
sg313
I24
sa(dp572
g305
I0
sg306
I0
sg10
V192.168.11.0
p573
sg308
S''
sg309
I100
sg310
I0
sg311
V192.168.11.2
p574
sg313
I24
sa(dp575
g305
I2
sg306
I0
sg10
V192.168.12.0
p576
sg308
S''
sg309
I100
sg310
I0
sg311
V192.168.11.2
p577
sg313
I24
sa(dp578
g305
I2
sg306
I74
sg10
V192.168.7.0
p579
sg308
S''
sg309
I100
sg310
I0
sg311
V192.168.12.1
p580
sg313
I24
sa(dp581
g305
I2
sg306
I128
sg10
V192.168.79.0
p582
sg308
S''
sg309
I100
sg310
I0
sg311
V192.168.12.1
p583
sg313
I24
sa(dp584
g305
I2
sg306
I128
sg10
V192.168.27.0
p585
sg308
S''
sg309
I100
sg310
I0
sg311
V192.168.12.1
p586
sg313
I24
sa(dp587
g305
I2
sg306
I128
sg10
V192.168.17.0
p588
sg308
S''
sg309
I100
sg310
I0
sg311
V192.168.12.1
p589
sg313
I24
sa(dp590
g305
I2
sg306
I129
sg10
V192.168.1.0
p591
sg308
S''
sg309
I100
sg310
I0
sg311
V192.168.12.1
p592
sg313
I24
sa(dp593
g305
I2
sg306
I129
sg10
V192.168.99.99
p594
sg308
S''
sg309
I100
sg310
I0
sg311
V192.168.12.1
p595
sg313
I32
sa(dp596
g305
I2
sg306
I138
sg10
V192.168.39.0
p597
sg308
S''
sg309
I100
sg310
I0
sg311
V192.168.12.1
p598
sg313
I24
sa(dp599
g305
I2
sg306
I138
sg10
V192.168.4.0
p600
sg308
S''
sg309
I100
sg310
I0
sg311
V192.168.12.1
p601
sg313
I24
sa(dp602
g305
I2
sg306
I138
sg10
V192.168.3.0
p603
sg308
S''
sg309
I100
sg310
I0
sg311
V192.168.12.1
p604
sg313
I24
sa(dp605
g305
I2
sg306
I192
sg10
V192.168.29.0
p606
sg308
S''
sg309
I100
sg310
I0
sg311
V192.168.12.1
p607
sg313
I24
sa(dp608
g305
I2
sg306
I192
sg10
V192.168.10.0
p609
sg308
S''
sg309
I100
sg310
I0
sg311
V192.168.12.1
p610
sg313
I24
sa(dp611
g305
I2
sg306
I192
sg10
V192.168.9.0
p612
sg308
S''
sg309
I100
sg310
I0
sg311
V192.168.12.1
p613
sg313
I24
sa(dp614
g305
I2
sg306
I192
sg10
V192.168.6.0
p615
sg308
S''
sg309
I100
sg310
I0
sg311
V192.168.12.1
p616
sg313
I24
sa(dp617
g305
I2
sg306
I192
sg10
V192.168.2.0
p618
sg308
S''
sg309
I100
sg310
I0
sg311
V192.168.12.1
p619
sg313
I24
sa(dp620
g305
I2
sg306
I202
sg10
V192.168.5.0
p621
sg308
S''
sg309
I100
sg310
I0
sg311
V192.168.12.1
p622
sg313
I24
sa(dp623
g305
I2
sg306
I0
sg10
V172.168.17.0
p624
sg308
S''
sg309
I100
sg310
I0
sg311
V192.168.23.2
p625
sg313
I24
sa(dp626
g305
I2
sg306
I0
sg10
V172.168.16.0
p627
sg308
S''
sg309
I100
sg310
I0
sg311
V192.168.23.2
p628
sg313
I24
sa(dp629
g305
I2
sg306
I0
sg10
V172.168.15.0
p630
sg308
S''
sg309
I100
sg310
I0
sg311
V192.168.23.2
p631
sg313
I24
sa(dp632
g305
I2
sg306
I0
sg10
V172.168.1.0
p633
sg308
S''
sg309
I100
sg310
I0
sg311
V192.168.23.2
p634
sg313
I24
sa(dp635
g305
I2
sg306
I0
sg10
V192.168.14.0
p636
sg308
S''
sg309
I100
sg310
I0
sg311
V192.168.23.2
p637
sg313
I24
sa(dp638
g305
I2
sg306
I0
sg10
V192.168.41.0
p639
sg308
S''
sg309
I100
sg310
I0
sg311
V192.168.11.1
p640
sg313
I24
sa(dp641
g305
I2
sg306
I0
sg10
V192.168.31.0
p642
sg308
S''
sg309
I100
sg310
I0
sg311
V192.168.11.1
p643
sg313
I24
sa(dp644
g305
I0
sg306
I0
sg10
V172.168.2.0
p645
sg308
S''
sg309
I100
sg310
I0
sg311
V192.168.23.2
p646
sg313
I24
sa(dp647
g305
I0
sg306
I0
sg10
V192.168.13.0
p648
sg308
S''
sg309
I100
sg310
I0
sg311
V192.168.23.2
p649
sg313
I24
sa(dp650
g305
I0
sg306
I0
sg10
V192.168.51.0
p651
sg308
S''
sg309
I100
sg310
I0
sg311
V192.168.11.1
p652
sg313
I24
sa(dp653
g305
I2
sg306
I2
sg10
V10.21.3.0
p654
sg308
S''
sg309
I100
sg310
I0
sg311
V192.168.11.1
p655
sg313
I24
sa(dp656
g305
I2
sg306
I3
sg10
V10.21.3.0
p657
sg308
S''
sg309
I200
sg310
I0
sg311
V192.168.13.2
p658
sg313
I24
sa(dp659
g305
I0
sg306
I0
sg10
V192.168.51.0
p660
sg308
S''
sg309
I200
sg310
I0
sg311
V192.168.13.1
p661
sg313
I24
sa(dp662
g305
I0
sg306
I0
sg10
V192.168.13.0
p663
sg308
S''
sg309
I200
sg310
I0
sg311
V192.168.13.1
p664
sg313
I24
sa(dp665
g305
I2
sg306
I0
sg10
V192.168.5.0
p666
sg308
S''
sg309
I200
sg310
I0
sg311
V192.168.13.1
p667
sg313
I24
sa(dp668
g305
I2
sg306
I128
sg10
V192.168.4.0
p669
sg308
S''
sg309
I200
sg310
I0
sg311
V192.168.5.1
p670
sg313
I24
sa(dp671
g305
I2
sg306
I192
sg10
V192.168.39.0
p672
sg308
S''
sg309
I200
sg310
I0
sg311
V192.168.5.1
p673
sg313
I24
sa(dp674
g305
I2
sg306
I192
sg10
V192.168.7.0
p675
sg308
S''
sg309
I200
sg310
I0
sg311
V192.168.5.1
p676
sg313
I24
sa(dp677
g305
I2
sg306
I192
sg10
V192.168.3.0
p678
sg308
S''
sg309
I200
sg310
I0
sg311
V192.168.5.1
p679
sg313
I24
sa(dp680
g305
I2
sg306
I256
sg10
V192.168.79.0
p681
sg308
S''
sg309
I200
sg310
I0
sg311
V192.168.5.1
p682
sg313
I24
sa(dp683
g305
I2
sg306
I256
sg10
V192.168.29.0
p684
sg308
S''
sg309
I200
sg310
I0
sg311
V192.168.5.1
p685
sg313
I24
sa(dp686
g305
I2
sg306
I256
sg10
V192.168.27.0
p687
sg308
S''
sg309
I200
sg310
I0
sg311
V192.168.5.1
p688
sg313
I24
sa(dp689
g305
I2
sg306
I256
sg10
V192.168.17.0
p690
sg308
S''
sg309
I200
sg310
I0
sg311
V192.168.5.1
p691
sg313
I24
sa(dp692
g305
I2
sg306
I256
sg10
V192.168.12.0
p693
sg308
S''
sg309
I200
sg310
I0
sg311
V192.168.5.1
p694
sg313
I24
sa(dp695
g305
I2
sg306
I256
sg10
V192.168.10.0
p696
sg308
S''
sg309
I200
sg310
I0
sg311
V192.168.5.1
p697
sg313
I24
sa(dp698
g305
I2
sg306
I256
sg10
V192.168.9.0
p699
sg308
S''
sg309
I200
sg310
I0
sg311
V192.168.5.1
p700
sg313
I24
sa(dp701
g305
I2
sg306
I256
sg10
V192.168.6.0
p702
sg308
S''
sg309
I200
sg310
I0
sg311
V192.168.5.1
p703
sg313
I24
sa(dp704
g305
I2
sg306
I256
sg10
V192.168.2.0
p705
sg308
S''
sg309
I200
sg310
I0
sg311
V192.168.5.1
p706
sg313
I24
sa(dp707
g305
I2
sg306
I257
sg10
V192.168.1.0
p708
sg308
S''
sg309
I200
sg310
I0
sg311
V192.168.5.1
p709
sg313
I24
sa(dp710
g305
I2
sg306
I257
sg10
V192.168.99.99
p711
sg308
S''
sg309
I200
sg310
I0
sg311
V192.168.5.1
p712
sg313
I32
sa(dp713
g305
I2
sg306
I0
sg10
V192.168.14.0
p714
sg308
S''
sg309
I200
sg310
I0
sg311
V192.168.13.2
p715
sg313
I24
sa(dp716
g305
I2
sg306
I0
sg10
V192.168.31.0
p717
sg308
S''
sg309
I200
sg310
I0
sg311
V192.168.13.2
p718
sg313
I24
sa(dp719
g305
I2
sg306
I3
sg10
V10.21.3.0
p720
sg308
S''
sg309
I200
sg310
I0
sg311
V192.168.13.2
p721
sg313
I24
sa(dp722
g305
I2
sg306
I2
sg10
V192.168.41.0
p723
sg308
S''
sg309
I200
sg310
I0
sg311
V192.168.13.2
p724
sg313
I24
sa(dp725
g305
I0
sg306
I0
sg10
V192.168.23.0
p726
sg308
S''
sg309
I200
sg310
I0
sg311
V192.168.13.2
p727
sg313
I24
sa(dp728
g305
I0
sg306
I0
sg10
V192.168.11.0
p729
sg308
S''
sg309
I200
sg310
I0
sg311
V192.168.51.2
p730
sg313
I24
sa(dp731
g305
I0
sg306
I0
sg10
V192.168.23.0
p732
sg308
S''
sg309
I100
sg310
I0
sg311
V192.168.11.2
p733
sg313
I24
sa(dp734
g305
I0
sg306
I0
sg10
V192.168.11.0
p735
sg308
S''
sg309
I100
sg310
I0
sg311
V192.168.11.2
p736
sg313
I24
sa(dp737
g305
I2
sg306
I0
sg10
V192.168.12.0
p738
sg308
S''
sg309
I100
sg310
I0
sg311
V192.168.11.2
p739
sg313
I24
sa(dp740
g305
I2
sg306
I74
sg10
V192.168.7.0
p741
sg308
S''
sg309
I100
sg310
I0
sg311
V192.168.12.1
p742
sg313
I24
sa(dp743
g305
I2
sg306
I128
sg10
V192.168.79.0
p744
sg308
S''
sg309
I100
sg310
I0
sg311
V192.168.12.1
p745
sg313
I24
sa(dp746
g305
I2
sg306
I128
sg10
V192.168.27.0
p747
sg308
S''
sg309
I100
sg310
I0
sg311
V192.168.12.1
p748
sg313
I24
sa(dp749
g305
I2
sg306
I128
sg10
V192.168.17.0
p750
sg308
S''
sg309
I100
sg310
I0
sg311
V192.168.12.1
p751
sg313
I24
sa(dp752
g305
I2
sg306
I129
sg10
V192.168.1.0
p753
sg308
S''
sg309
I100
sg310
I0
sg311
V192.168.12.1
p754
sg313
I24
sa(dp755
g305
I2
sg306
I129
sg10
V192.168.99.99
p756
sg308
S''
sg309
I100
sg310
I0
sg311
V192.168.12.1
p757
sg313
I32
sa(dp758
g305
I2
sg306
I138
sg10
V192.168.39.0
p759
sg308
S''
sg309
I100
sg310
I0
sg311
V192.168.12.1
p760
sg313
I24
sa(dp761
g305
I2
sg306
I138
sg10
V192.168.4.0
p762
sg308
S''
sg309
I100
sg310
I0
sg311
V192.168.12.1
p763
sg313
I24
sa(dp764
g305
I2
sg306
I138
sg10
V192.168.3.0
p765
sg308
S''
sg309
I100
sg310
I0
sg311
V192.168.12.1
p766
sg313
I24
sa(dp767
g305
I2
sg306
I192
sg10
V192.168.29.0
p768
sg308
S''
sg309
I100
sg310
I0
sg311
V192.168.12.1
p769
sg313
I24
sa(dp770
g305
I2
sg306
I192
sg10
V192.168.10.0
p771
sg308
S''
sg309
I100
sg310
I0
sg311
V192.168.12.1
p772
sg313
I24
sa(dp773
g305
I2
sg306
I192
sg10
V192.168.9.0
p774
sg308
S''
sg309
I100
sg310
I0
sg311
V192.168.12.1
p775
sg313
I24
sa(dp776
g305
I2
sg306
I192
sg10
V192.168.6.0
p777
sg308
S''
sg309
I100
sg310
I0
sg311
V192.168.12.1
p778
sg313
I24
sa(dp779
g305
I2
sg306
I192
sg10
V192.168.2.0
p780
sg308
S''
sg309
I100
sg310
I0
sg311
V192.168.12.1
p781
sg313
I24
sa(dp782
g305
I2
sg306
I202
sg10
V192.168.5.0
p783
sg308
S''
sg309
I100
sg310
I0
sg311
V192.168.12.1
p784
sg313
I24
sa(dp785
g305
I2
sg306
I0
sg10
V192.168.14.0
p786
sg308
S''
sg309
I100
sg310
I0
sg311
V192.168.23.2
p787
sg313
I24
sa(dp788
g305
I2
sg306
I0
sg10
V192.168.41.0
p789
sg308
S''
sg309
I100
sg310
I0
sg311
V192.168.11.1
p790
sg313
I24
sa(dp791
g305
I2
sg306
I0
sg10
V192.168.31.0
p792
sg308
S''
sg309
I100
sg310
I0
sg311
V192.168.11.1
p793
sg313
I24
sa(dp794
g305
I2
sg306
I2
sg10
V10.21.3.0
p795
sg308
S''
sg309
I100
sg310
I0
sg311
V192.168.11.1
p796
sg313
I24
sa(dp797
g305
I0
sg306
I0
sg10
V192.168.13.0
p798
sg308
S''
sg309
I100
sg310
I0
sg311
V192.168.23.2
p799
sg313
I24
sa(dp800
g305
I0
sg306
I0
sg10
V192.168.51.0
p801
sg308
S''
sg309
I100
sg310
I0
sg311
V192.168.11.1
p802
sg313
I24
sa(dp803
g305
I0
sg306
I1
sg10
V192.168.51.0
p804
sg308
S''
sg309
I200
sg310
I0
sg311
V192.168.5.1
p805
sg313
I24
sa(dp806
g305
I2
sg306
I3
sg10
V10.21.3.0
p807
sg308
S''
sg309
I100
sg310
I0
sg311
V192.168.23.2
p808
sg313
I24
sa(dp809
g305
I2
sg306
I0
sg10
V192.168.31.0
p810
sg308
S''
sg309
I100
sg310
I0
sg311
V192.168.23.2
p811
sg313
I24
sa(dp812
g305
I2
sg306
I2
sg10
V192.168.41.0
p813
sg308
S''
sg309
I100
sg310
I0
sg311
V192.168.23.2
p814
sg313
I24
sa(dp815
g305
I0
sg306
I1
sg10
V192.168.13.0
p816
sg308
S''
sg309
I200
sg310
I0
sg311
V192.168.5.1
p817
sg313
I24
sa(dp818
g305
I0
sg306
I0
sg10
V192.168.11.0
p819
sg308
S''
sg309
I100
sg310
I0
sg311
V192.168.11.2
p820
sg313
I24
sa(dp821
g305
I0
sg306
I0
sg10
V192.168.23.0
p822
sg308
S''
sg309
I100
sg310
I0
sg311
V192.168.11.2
p823
sg313
I24
sa(dp824
g305
I2
sg306
I0
sg10
V192.168.12.0
p825
sg308
S''
sg309
I100
sg310
I0
sg311
V192.168.11.2
p826
sg313
I24
sa(dp827
g305
I2
sg306
I74
sg10
V192.168.7.0
p828
sg308
S''
sg309
I100
sg310
I0
sg311
V192.168.12.1
p829
sg313
I24
sa(dp830
g305
I2
sg306
I128
sg10
V192.168.79.0
p831
sg308
S''
sg309
I100
sg310
I0
sg311
V192.168.12.1
p832
sg313
I24
sa(dp833
g305
I2
sg306
I128
sg10
V192.168.27.0
p834
sg308
S''
sg309
I100
sg310
I0
sg311
V192.168.12.1
p835
sg313
I24
sa(dp836
g305
I2
sg306
I128
sg10
V192.168.17.0
p837
sg308
S''
sg309
I100
sg310
I0
sg311
V192.168.12.1
p838
sg313
I24
sa(dp839
g305
I2
sg306
I129
sg10
V192.168.1.0
p840
sg308
S''
sg309
I100
sg310
I0
sg311
V192.168.12.1
p841
sg313
I24
sa(dp842
g305
I2
sg306
I138
sg10
V192.168.39.0
p843
sg308
S''
sg309
I100
sg310
I0
sg311
V192.168.12.1
p844
sg313
I24
sa(dp845
g305
I2
sg306
I138
sg10
V192.168.4.0
p846
sg308
S''
sg309
I100
sg310
I0
sg311
V192.168.12.1
p847
sg313
I24
sa(dp848
g305
I2
sg306
I138
sg10
V192.168.3.0
p849
sg308
S''
sg309
I100
sg310
I0
sg311
V192.168.12.1
p850
sg313
I24
sa(dp851
g305
I2
sg306
I192
sg10
V192.168.31.0
p852
sg308
S''
sg309
I100
sg310
I0
sg311
V192.168.12.1
p853
sg313
I24
sa(dp854
g305
I2
sg306
I192
sg10
V192.168.29.0
p855
sg308
S''
sg309
I100
sg310
I0
sg311
V192.168.12.1
p856
sg313
I24
sa(dp857
g305
I2
sg306
I192
sg10
V192.168.10.0
p858
sg308
S''
sg309
I100
sg310
I0
sg311
V192.168.12.1
p859
sg313
I24
sa(dp860
g305
I2
sg306
I192
sg10
V192.168.9.0
p861
sg308
S''
sg309
I100
sg310
I0
sg311
V192.168.12.1
p862
sg313
I24
sa(dp863
g305
I2
sg306
I192
sg10
V192.168.6.0
p864
sg308
S''
sg309
I100
sg310
I0
sg311
V192.168.12.1
p865
sg313
I24
sa(dp866
g305
I2
sg306
I192
sg10
V192.168.2.0
p867
sg308
S''
sg309
I100
sg310
I0
sg311
V192.168.12.1
p868
sg313
I24
sa(dp869
g305
I2
sg306
I202
sg10
V192.168.5.0
p870
sg308
S''
sg309
I100
sg310
I0
sg311
V192.168.12.1
p871
sg313
I24
sa(dp872
g305
I2
sg306
I0
sg10
V192.168.41.0
p873
sg308
S''
sg309
I100
sg310
I0
sg311
V192.168.11.1
p874
sg313
I24
sa(dp875
g305
I2
sg306
I0
sg10
V192.168.14.0
p876
sg308
S''
sg309
I100
sg310
I0
sg311
V192.168.23.2
p877
sg313
I24
sa(dp878
g305
I2
sg306
I2
sg10
V10.21.3.0
p879
sg308
S''
sg309
I100
sg310
I0
sg311
V192.168.11.1
p880
sg313
I24
sa(dp881
g305
I0
sg306
I0
sg10
V192.168.51.0
p882
sg308
S''
sg309
I100
sg310
I0
sg311
V192.168.11.1
p883
sg313
I24
sa(dp884
g305
I0
sg306
I0
sg10
V192.168.13.0
p885
sg308
S''
sg309
I100
sg310
I0
sg311
V192.168.23.2
p886
sg313
I24
sa(dp887
g305
I0
sg306
I0
sg10
V192.168.51.0
p888
sg308
S''
sg309
I200
sg310
I0
sg311
V192.168.13.1
p889
sg313
I24
sa(dp890
g305
I0
sg306
I0
sg10
V192.168.13.0
p891
sg308
S''
sg309
I200
sg310
I0
sg311
V192.168.13.1
p892
sg313
I24
sa(dp893
g305
I2
sg306
I0
sg10
V192.168.5.0
p894
sg308
S''
sg309
I200
sg310
I0
sg311
V192.168.13.1
p895
sg313
I24
sa(dp896
g305
I2
sg306
I128
sg10
V192.168.4.0
p897
sg308
S''
sg309
I200
sg310
I0
sg311
V192.168.5.1
p898
sg313
I24
sa(dp899
g305
I2
sg306
I192
sg10
V192.168.39.0
p900
sg308
S''
sg309
I200
sg310
I0
sg311
V192.168.5.1
p901
sg313
I24
sa(dp902
g305
I2
sg306
I192
sg10
V192.168.7.0
p903
sg308
S''
sg309
I200
sg310
I0
sg311
V192.168.5.1
p904
sg313
I24
sa(dp905
g305
I2
sg306
I192
sg10
V192.168.3.0
p906
sg308
S''
sg309
I200
sg310
I0
sg311
V192.168.5.1
p907
sg313
I24
sa(dp908
g305
I2
sg306
I256
sg10
V192.168.79.0
p909
sg308
S''
sg309
I200
sg310
I0
sg311
V192.168.5.1
p910
sg313
I24
sa(dp911
g305
I2
sg306
I256
sg10
V192.168.29.0
p912
sg308
S''
sg309
I200
sg310
I0
sg311
V192.168.5.1
p913
sg313
I24
sa(dp914
g305
I2
sg306
I256
sg10
V192.168.27.0
p915
sg308
S''
sg309
I200
sg310
I0
sg311
V192.168.5.1
p916
sg313
I24
sa(dp917
g305
I2
sg306
I256
sg10
V192.168.17.0
p918
sg308
S''
sg309
I200
sg310
I0
sg311
V192.168.5.1
p919
sg313
I24
sa(dp920
g305
I2
sg306
I256
sg10
V192.168.12.0
p921
sg308
S''
sg309
I200
sg310
I0
sg311
V192.168.5.1
p922
sg313
I24
sa(dp923
g305
I2
sg306
I256
sg10
V192.168.10.0
p924
sg308
S''
sg309
I200
sg310
I0
sg311
V192.168.5.1
p925
sg313
I24
sa(dp926
g305
I2
sg306
I256
sg10
V192.168.9.0
p927
sg308
S''
sg309
I200
sg310
I0
sg311
V192.168.5.1
p928
sg313
I24
sa(dp929
g305
I2
sg306
I256
sg10
V192.168.6.0
p930
sg308
S''
sg309
I200
sg310
I0
sg311
V192.168.5.1
p931
sg313
I24
sa(dp932
g305
I2
sg306
I256
sg10
V192.168.2.0
p933
sg308
S''
sg309
I200
sg310
I0
sg311
V192.168.5.1
p934
sg313
I24
sa(dp935
g305
I2
sg306
I257
sg10
V192.168.1.0
p936
sg308
S''
sg309
I200
sg310
I0
sg311
V192.168.5.1
p937
sg313
I24
sa(dp938
g305
I2
sg306
I320
sg10
V192.168.31.0
p939
sg308
S''
sg309
I200
sg310
I0
sg311
V192.168.5.1
p940
sg313
I24
sa(dp941
g305
I2
sg306
I0
sg10
V192.168.14.0
p942
sg308
S''
sg309
I200
sg310
I0
sg311
V192.168.13.2
p943
sg313
I24
sa(dp944
g305
I2
sg306
I3
sg10
V10.21.3.0
p945
sg308
S''
sg309
I200
sg310
I0
sg311
V192.168.13.2
p946
sg313
I24
sa(dp947
g305
I2
sg306
I2
sg10
V192.168.41.0
p948
sg308
S''
sg309
I200
sg310
I0
sg311
V192.168.13.2
p949
sg313
I24
sa(dp950
g305
I0
sg306
I0
sg10
V192.168.11.0
p951
sg308
S''
sg309
I200
sg310
I0
sg311
V192.168.51.2
p952
sg313
I24
sa(dp953
g305
I0
sg306
I0
sg10
V192.168.23.0
p954
sg308
S''
sg309
I200
sg310
I0
sg311
V192.168.13.2
p955
sg313
I24
sa(dp956
g305
I0
sg306
I0
sg10
V172.168.2.0
p957
sg308
S''
sg309
I100
sg310
I0
sg311
V192.168.23.2
p958
sg313
I24
sa(dp959
g305
I0
sg306
I0
sg10
V172.168.2.0
p960
sg308
S''
sg309
I200
sg310
I0
sg311
V192.168.13.2
p961
sg313
I24
sa(dp962
g305
I2
sg306
I0
sg10
V172.168.17.0
p963
sg308
S''
sg309
I200
sg310
I0
sg311
V192.168.13.2
p964
sg313
I24
sa(dp965
g305
I2
sg306
I0
sg10
V172.168.16.0
p966
sg308
S''
sg309
I200
sg310
I0
sg311
V192.168.13.2
p967
sg313
I24
sa(dp968
g305
I2
sg306
I0
sg10
V172.168.15.0
p969
sg308
S''
sg309
I200
sg310
I0
sg311
V192.168.13.2
p970
sg313
I24
sa(dp971
g305
I2
sg306
I0
sg10
V172.168.1.0
p972
sg308
S''
sg309
I200
sg310
I0
sg311
V192.168.13.2
p973
sg313
I24
sa(dp974
g305
I2
sg306
I0
sg10
V172.168.17.0
p975
sg308
S''
sg309
I100
sg310
I0
sg311
V192.168.23.2
p976
sg313
I24
sa(dp977
g305
I2
sg306
I0
sg10
V172.168.16.0
p978
sg308
S''
sg309
I100
sg310
I0
sg311
V192.168.23.2
p979
sg313
I24
sa(dp980
g305
I2
sg306
I0
sg10
V172.168.15.0
p981
sg308
S''
sg309
I100
sg310
I0
sg311
V192.168.23.2
p982
sg313
I24
sa(dp983
g305
I2
sg306
I0
sg10
V172.168.1.0
p984
sg308
S''
sg309
I100
sg310
I0
sg311
V192.168.23.2
p985
sg313
I24
sa(dp986
g305
I2
sg306
I3
sg10
V10.21.3.0
p987
sg308
S''
sg309
I100
sg310
I0
sg311
V192.168.23.2
p988
sg313
I24
sa(dp989
g305
I2
sg306
I2
sg10
V10.21.3.0
p990
sg308
S''
sg309
I100
sg310
I0
sg311
V192.168.11.1
p991
sg313
I24
sa(dp992
g305
I2
sg306
I2
sg10
V10.21.3.0
p993
sg308
S''
sg309
I200
sg310
I0
sg311
V192.168.51.2
p994
sg313
I24
sa(dp995
g305
I2
sg306
I3
sg10
V10.21.3.0
p996
sg308
S''
sg309
I200
sg310
I0
sg311
V192.168.13.2
p997
sg313
I24
sa(dp998
g305
I2
sg306
I192
sg10
V192.168.6.0
p999
sg308
S''
sg309
I100
sg310
I0
sg311
V192.168.12.1
p1000
sg313
I24
sa(dp1001
g305
I2
sg306
I256
sg10
V192.168.6.0
p1002
sg308
S''
sg309
I200
sg310
I0
sg311
V192.168.5.1
p1003
sg313
I24
sasS'ExternalLsa'
p1004
(lp1005
(dp1006
S'externalType'
p1007
I2
sg106
I0
sS'advRouter'
p1008
V192.168.23.1
p1009
sS'networkMask'
p1010
V255.255.255.0
p1011
sS'forwardingAddress'
p1012
V0.0.0.0
p1013
sS'linkStateId'
p1014
V192.168.23.0
p1015
sa(dp1016
g1007
I2
sg106
I0
sg1008
V192.168.5.2
p1017
sg1010
V255.255.255.0
p1018
sg1012
V0.0.0.0
p1019
sg1014
V192.168.13.0
p1020
sa(dp1021
g1007
I2
sg106
I0
sg1008
V192.168.5.2
p1022
sg1010
V255.255.255.0
p1023
sg1012
V0.0.0.0
p1024
sg1014
V192.168.51.0
p1025
sa(dp1026
g1007
I2
sg106
I0
sg1008
V192.168.23.1
p1027
sg1010
V255.255.255.0
p1028
sg1012
V0.0.0.0
p1029
sg1014
V192.168.11.0
p1030
sa(dp1031
g1007
I2
sg106
I0
sg1008
V192.168.5.2
p1032
sg1010
V255.255.255.0
p1033
sg1012
V0.0.0.0
p1034
sg1014
V192.168.14.0
p1035
sa(dp1036
g1007
I2
sg106
I0
sg1008
V192.168.5.2
p1037
sg1010
V255.255.255.0
p1038
sg1012
V0.0.0.0
p1039
sg1014
V192.168.23.0
p1040
sa(dp1041
g1007
I2
sg106
I0
sg1008
V192.168.5.2
p1042
sg1010
V255.255.255.0
p1043
sg1012
V0.0.0.0
p1044
sg1014
V192.168.41.0
p1045
sa(dp1046
g1007
I2
sg106
I0
sg1008
V192.168.23.1
p1047
sg1010
V255.255.255.0
p1048
sg1012
V0.0.0.0
p1049
sg1014
V192.168.13.0
p1050
sa(dp1051
g1007
I2
sg106
I0
sg1008
V192.168.23.1
p1052
sg1010
V255.255.255.0
p1053
sg1012
V0.0.0.0
p1054
sg1014
V192.168.14.0
p1055
sa(dp1056
g1007
I2
sg106
I0
sg1008
V192.168.23.1
p1057
sg1010
V255.255.255.0
p1058
sg1012
V0.0.0.0
p1059
sg1014
V192.168.41.0
p1060
sa(dp1061
g1007
I2
sg106
I0
sg1008
V192.168.23.1
p1062
sg1010
V255.255.255.0
p1063
sg1012
V0.0.0.0
p1064
sg1014
V192.168.51.0
p1065
sa(dp1066
g1007
I2
sg106
I0
sg1008
V192.168.5.2
p1067
sg1010
V255.255.255.0
p1068
sg1012
V0.0.0.0
p1069
sg1014
V192.168.11.0
p1070
sa(dp1071
g1007
I2
sg106
I0
sg1008
V192.168.23.1
p1072
sg1010
V255.255.255.0
p1073
sg1012
V0.0.0.0
p1074
sg1014
V172.168.2.0
p1075
sa(dp1076
g1007
I2
sg106
I0
sg1008
V192.168.5.2
p1077
sg1010
V255.255.255.0
p1078
sg1012
V0.0.0.0
p1079
sg1014
V172.168.2.0
p1080
sa(dp1081
g1007
I2
sg106
I0
sg1008
V192.168.23.1
p1082
sg1010
V255.255.255.0
p1083
sg1012
V0.0.0.0
p1084
sg1014
V172.168.1.0
p1085
sa(dp1086
g1007
I2
sg106
I0
sg1008
V192.168.5.2
p1087
sg1010
V255.255.255.0
p1088
sg1012
V0.0.0.0
p1089
sg1014
V172.168.1.0
p1090
sa(dp1091
g1007
I2
sg106
I0
sg1008
V192.168.23.1
p1092
sg1010
V255.255.255.0
p1093
sg1012
V0.0.0.0
p1094
sg1014
V172.168.15.0
p1095
sa(dp1096
g1007
I2
sg106
I0
sg1008
V192.168.23.1
p1097
sg1010
V255.255.255.0
p1098
sg1012
V0.0.0.0
p1099
sg1014
V172.168.16.0
p1100
sa(dp1101
g1007
I2
sg106
I0
sg1008
V192.168.23.1
p1102
sg1010
V255.255.255.0
p1103
sg1012
V0.0.0.0
p1104
sg1014
V172.168.17.0
p1105
sa(dp1106
g1007
I2
sg106
I0
sg1008
V192.168.5.2
p1107
sg1010
V255.255.255.0
p1108
sg1012
V0.0.0.0
p1109
sg1014
V172.168.15.0
p1110
sa(dp1111
g1007
I2
sg106
I0
sg1008
V192.168.5.2
p1112
sg1010
V255.255.255.0
p1113
sg1012
V0.0.0.0
p1114
sg1014
V172.168.16.0
p1115
sa(dp1116
g1007
I2
sg106
I0
sg1008
V192.168.5.2
p1117
sg1010
V255.255.255.0
p1118
sg1012
V0.0.0.0
p1119
sg1014
V172.168.17.0
p1120
sa(dp1121
g1007
I2
sg106
I0
sg1008
V192.168.23.1
p1122
sg1010
V255.255.255.0
p1123
sg1012
V0.0.0.0
p1124
sg1014
V10.21.3.0
p1125
sa(dp1126
g1007
I2
sg106
I0
sg1008
V192.168.5.2
p1127
sg1010
V255.255.255.0
p1128
sg1012
V0.0.0.0
p1129
sg1014
V10.21.3.0
p1130
sassa(dp1131
g3
(dp1132
g5
(lp1133
(dp1134
g8
V192.168.14.2
p1135
sg10
L3232239104L
sg11
V255.255.255.0
p1136
sa(dp1137
g8
V192.168.13.2
p1138
sg10
L3232239104L
sg11
V255.255.255.0
p1139
sasg97
(lp1140
(dp1141
g8
V192.168.11.1
p1142
sg101
(lp1143
(dp1144
g104
V0.0.0.0
p1145
sg106
I1
sg107
V192.168.14.2
p1146
sg11
V255.255.255.0
p1147
sg110
V192.168.41.1
p1148
sg112
I4881
sa(dp1149
g104
V0.0.0.0
p1150
sg106
I1
sg107
V192.168.13.2
p1151
sg11
V255.255.255.0
p1152
sg110
V192.168.31.1
p1153
sg112
I4882
sasa(dp1154
g8
V192.168.13.2
p1155
sg101
(lp1156
(dp1157
g104
V0.0.0.0
p1158
sg106
I64
sg107
V192.168.14.2
p1159
sg11
V255.255.255.0
p1160
sg110
V192.168.14.1
p1161
sg112
I4877
sa(dp1162
g104
V0.0.0.0
p1163
sg106
I1
sg107
V192.168.11.1
p1164
sg11
V255.255.255.0
p1165
sg110
V192.168.31.2
p1166
sg112
I4879
sasa(dp1167
g8
V192.168.14.2
p1168
sg101
(lp1169
(dp1170
g104
V0.0.0.0
p1171
sg106
I64
sg107
V192.168.13.2
p1172
sg11
V255.255.255.0
p1173
sg110
V192.168.14.2
p1174
sg112
I4875
sa(dp1175
g104
V0.0.0.0
p1176
sg106
I1
sg107
V192.168.11.1
p1177
sg11
V255.255.255.0
p1178
sg110
V192.168.41.2
p1179
sg112
I4880
sasasg275
(lp1180
(dp1181
g278
I4884
sg106
I30
sg107
V192.168.23.1
p1182
sg11
V255.255.255.0
p1183
sg8
V192.168.13.2
p1184
sg110
V192.168.23.2
p1185
sg283
I1
sa(dp1186
g278
I4885
sg106
I40
sg107
V192.168.5.2
p1187
sg11
V255.255.255.0
p1188
sg8
V192.168.13.2
p1189
sg110
V192.168.13.2
p1190
sg283
I1
sa(dp1191
g278
I4886
sg106
I60
sg107
V172.168.16.1
p1192
sg11
V255.255.255.0
p1193
sg8
V192.168.13.2
p1194
sg110
V172.168.2.2
p1195
sg283
I3
sassg299
I2
sg300
(dp1196
g302
(lp1197
(dp1198
g305
I2
sg306
I3
sg10
V10.21.3.0
p1199
sg308
S''
sg309
I100
sg310
I0
sg311
V192.168.31.1
p1200
sg313
I24
sa(dp1201
g305
I2
sg306
I2
sg10
V192.168.41.0
p1202
sg308
S''
sg309
I100
sg310
I0
sg311
V192.168.31.1
p1203
sg313
I24
sa(dp1204
g305
I0
sg306
I0
sg10
V192.168.23.0
p1205
sg308
S''
sg309
I100
sg310
I0
sg311
V192.168.23.2
p1206
sg313
I24
sa(dp1207
g305
I0
sg306
I0
sg10
V192.168.13.0
p1208
sg308
S''
sg309
I100
sg310
I0
sg311
V192.168.23.2
p1209
sg313
I24
sa(dp1210
g305
I0
sg306
I0
sg10
V172.168.2.0
p1211
sg308
S''
sg309
I100
sg310
I0
sg311
V192.168.23.2
p1212
sg313
I24
sa(dp1213
g305
I2
sg306
I0
sg10
V192.168.31.0
p1214
sg308
S''
sg309
I100
sg310
I0
sg311
V192.168.23.2
p1215
sg313
I24
sa(dp1216
g305
I2
sg306
I0
sg10
V192.168.14.0
p1217
sg308
S''
sg309
I100
sg310
I0
sg311
V192.168.23.2
p1218
sg313
I24
sa(dp1219
g305
I2
sg306
I0
sg10
V172.168.1.0
p1220
sg308
S''
sg309
I100
sg310
I0
sg311
V172.168.2.1
p1221
sg313
I24
sa(dp1222
g305
I2
sg306
I0
sg10
V172.168.15.0
p1223
sg308
S''
sg309
I100
sg310
I0
sg311
V172.168.2.1
p1224
sg313
I24
sa(dp1225
g305
I2
sg306
I0
sg10
V172.168.16.0
p1226
sg308
S''
sg309
I100
sg310
I0
sg311
V172.168.2.1
p1227
sg313
I24
sa(dp1228
g305
I0
sg306
I0
sg10
V192.168.51.0
p1229
sg308
S''
sg309
I100
sg310
I0
sg311
V192.168.13.1
p1230
sg313
I24
sa(dp1231
g305
I0
sg306
I0
sg10
V192.168.11.0
p1232
sg308
S''
sg309
I100
sg310
I0
sg311
V192.168.23.1
p1233
sg313
I24
sa(dp1234
g305
I2
sg306
I2
sg10
V10.21.3.0
p1235
sg308
S''
sg309
I100
sg310
I0
sg311
V192.168.41.2
p1236
sg313
I24
sa(dp1237
g305
I0
sg306
I0
sg10
V192.168.51.0
p1238
sg308
S''
sg309
I100
sg310
I0
sg311
V192.168.11.1
p1239
sg313
I24
sa(dp1240
g305
I0
sg306
I0
sg10
V192.168.11.0
p1241
sg308
S''
sg309
I100
sg310
I0
sg311
V192.168.11.1
p1242
sg313
I24
sa(dp1243
g305
I2
sg306
I0
sg10
V192.168.41.0
p1244
sg308
S''
sg309
I100
sg310
I0
sg311
V192.168.11.1
p1245
sg313
I24
sa(dp1246
g305
I2
sg306
I0
sg10
V192.168.31.0
p1247
sg308
S''
sg309
I100
sg310
I0
sg311
V192.168.11.1
p1248
sg313
I24
sa(dp1249
g305
I2
sg306
I65
sg10
V192.168.14.0
p1250
sg308
S''
sg309
I100
sg310
I0
sg311
V192.168.31.2
p1251
sg313
I24
sa(dp1252
g305
I0
sg306
I0
sg10
V192.168.13.0
p1253
sg308
S''
sg309
I100
sg310
I0
sg311
V192.168.51.1
p1254
sg313
I24
sa(dp1255
g305
I0
sg306
I0
sg10
V192.168.23.0
p1256
sg308
S''
sg309
I100
sg310
I0
sg311
V192.168.11.2
p1257
sg313
I24
sa(dp1258
g305
I2
sg306
I0
sg10
V192.168.5.0
p1259
sg308
S''
sg309
I100
sg310
I0
sg311
V192.168.51.1
p1260
sg313
I24
sa(dp1261
g305
I2
sg306
I0
sg10
V192.168.12.0
p1262
sg308
S''
sg309
I100
sg310
I0
sg311
V192.168.11.2
p1263
sg313
I24
sa(dp1264
g305
I2
sg306
I74
sg10
V192.168.7.0
p1265
sg308
S''
sg309
I100
sg310
I0
sg311
V192.168.11.2
p1266
sg313
I24
sa(dp1267
g305
I2
sg306
I128
sg10
V192.168.4.0
p1268
sg308
S''
sg309
I100
sg310
I0
sg311
V192.168.51.1
p1269
sg313
I24
sa(dp1270
g305
I2
sg306
I128
sg10
V192.168.79.0
p1271
sg308
S''
sg309
I100
sg310
I0
sg311
V192.168.11.2
p1272
sg313
I24
sa(dp1273
g305
I2
sg306
I128
sg10
V192.168.27.0
p1274
sg308
S''
sg309
I100
sg310
I0
sg311
V192.168.11.2
p1275
sg313
I24
sa(dp1276
g305
I2
sg306
I128
sg10
V192.168.17.0
p1277
sg308
S''
sg309
I100
sg310
I0
sg311
V192.168.11.2
p1278
sg313
I24
sa(dp1279
g305
I2
sg306
I129
sg10
V192.168.99.99
p1280
sg308
S''
sg309
I100
sg310
I0
sg311
V192.168.11.2
p1281
sg313
I32
sa(dp1282
g305
I2
sg306
I129
sg10
V192.168.1.0
p1283
sg308
S''
sg309
I100
sg310
I0
sg311
V192.168.11.2
p1284
sg313
I24
sa(dp1285
g305
I2
sg306
I138
sg10
V192.168.39.0
p1286
sg308
S''
sg309
I100
sg310
I0
sg311
V192.168.11.2
p1287
sg313
I24
sa(dp1288
g305
I2
sg306
I138
sg10
V192.168.3.0
p1289
sg308
S''
sg309
I100
sg310
I0
sg311
V192.168.11.2
p1290
sg313
I24
sa(dp1291
g305
I2
sg306
I192
sg10
V192.168.29.0
p1292
sg308
S''
sg309
I100
sg310
I0
sg311
V192.168.11.2
p1293
sg313
I24
sa(dp1294
g305
I2
sg306
I192
sg10
V192.168.10.0
p1295
sg308
S''
sg309
I100
sg310
I0
sg311
V192.168.11.2
p1296
sg313
I24
sa(dp1297
g305
I2
sg306
I192
sg10
V192.168.9.0
p1298
sg308
S''
sg309
I100
sg310
I0
sg311
V192.168.11.2
p1299
sg313
I24
sa(dp1300
g305
I2
sg306
I192
sg10
V192.168.6.0
p1301
sg308
S''
sg309
I100
sg310
I0
sg311
V192.168.11.2
p1302
sg313
I24
sa(dp1303
g305
I2
sg306
I192
sg10
V192.168.2.0
p1304
sg308
S''
sg309
I100
sg310
I0
sg311
V192.168.11.2
p1305
sg313
I24
sa(dp1306
g305
I2
sg306
I3
sg10
V10.21.3.0
p1307
sg308
S''
sg309
I100
sg310
I0
sg311
V192.168.31.1
p1308
sg313
I24
sa(dp1309
g305
I2
sg306
I2
sg10
V192.168.41.0
p1310
sg308
S''
sg309
I100
sg310
I0
sg311
V192.168.31.1
p1311
sg313
I24
sa(dp1312
g305
I0
sg306
I0
sg10
V192.168.23.0
p1313
sg308
S''
sg309
I100
sg310
I0
sg311
V192.168.23.2
p1314
sg313
I24
sa(dp1315
g305
I0
sg306
I0
sg10
V192.168.13.0
p1316
sg308
S''
sg309
I100
sg310
I0
sg311
V192.168.23.2
p1317
sg313
I24
sa(dp1318
g305
I2
sg306
I0
sg10
V192.168.14.0
p1319
sg308
S''
sg309
I100
sg310
I0
sg311
V192.168.23.2
p1320
sg313
I24
sa(dp1321
g305
I2
sg306
I0
sg10
V192.168.31.0
p1322
sg308
S''
sg309
I100
sg310
I0
sg311
V192.168.23.2
p1323
sg313
I24
sa(dp1324
g305
I0
sg306
I0
sg10
V192.168.51.0
p1325
sg308
S''
sg309
I100
sg310
I0
sg311
V192.168.13.1
p1326
sg313
I24
sa(dp1327
g305
I0
sg306
I0
sg10
V192.168.11.0
p1328
sg308
S''
sg309
I100
sg310
I0
sg311
V192.168.23.1
p1329
sg313
I24
sa(dp1330
g305
I2
sg306
I0
sg10
V192.168.12.0
p1331
sg308
S''
sg309
I100
sg310
I0
sg311
V192.168.23.1
p1332
sg313
I24
sa(dp1333
g305
I2
sg306
I0
sg10
V192.168.5.0
p1334
sg308
S''
sg309
I100
sg310
I0
sg311
V192.168.13.1
p1335
sg313
I24
sa(dp1336
g305
I2
sg306
I74
sg10
V192.168.7.0
p1337
sg308
S''
sg309
I100
sg310
I0
sg311
V192.168.23.1
p1338
sg313
I24
sa(dp1339
g305
I2
sg306
I128
sg10
V192.168.79.0
p1340
sg308
S''
sg309
I100
sg310
I0
sg311
V192.168.23.1
p1341
sg313
I24
sa(dp1342
g305
I2
sg306
I128
sg10
V192.168.27.0
p1343
sg308
S''
sg309
I100
sg310
I0
sg311
V192.168.23.1
p1344
sg313
I24
sa(dp1345
g305
I2
sg306
I128
sg10
V192.168.17.0
p1346
sg308
S''
sg309
I100
sg310
I0
sg311
V192.168.23.1
p1347
sg313
I24
sa(dp1348
g305
I2
sg306
I128
sg10
V192.168.4.0
p1349
sg308
S''
sg309
I100
sg310
I0
sg311
V192.168.13.1
p1350
sg313
I24
sa(dp1351
g305
I2
sg306
I129
sg10
V192.168.99.99
p1352
sg308
S''
sg309
I100
sg310
I0
sg311
V192.168.23.1
p1353
sg313
I32
sa(dp1354
g305
I2
sg306
I129
sg10
V192.168.1.0
p1355
sg308
S''
sg309
I100
sg310
I0
sg311
V192.168.23.1
p1356
sg313
I24
sa(dp1357
g305
I2
sg306
I138
sg10
V192.168.39.0
p1358
sg308
S''
sg309
I100
sg310
I0
sg311
V192.168.23.1
p1359
sg313
I24
sa(dp1360
g305
I2
sg306
I138
sg10
V192.168.3.0
p1361
sg308
S''
sg309
I100
sg310
I0
sg311
V192.168.23.1
p1362
sg313
I24
sa(dp1363
g305
I2
sg306
I192
sg10
V192.168.29.0
p1364
sg308
S''
sg309
I100
sg310
I0
sg311
V192.168.23.1
p1365
sg313
I24
sa(dp1366
g305
I2
sg306
I192
sg10
V192.168.10.0
p1367
sg308
S''
sg309
I100
sg310
I0
sg311
V192.168.23.1
p1368
sg313
I24
sa(dp1369
g305
I2
sg306
I192
sg10
V192.168.9.0
p1370
sg308
S''
sg309
I100
sg310
I0
sg311
V192.168.23.1
p1371
sg313
I24
sa(dp1372
g305
I2
sg306
I192
sg10
V192.168.6.0
p1373
sg308
S''
sg309
I100
sg310
I0
sg311
V192.168.23.1
p1374
sg313
I24
sa(dp1375
g305
I2
sg306
I192
sg10
V192.168.2.0
p1376
sg308
S''
sg309
I100
sg310
I0
sg311
V192.168.23.1
p1377
sg313
I24
sa(dp1378
g305
I2
sg306
I3
sg10
V10.21.3.0
p1379
sg308
S''
sg309
I100
sg310
I0
sg311
V192.168.31.1
p1380
sg313
I24
sa(dp1381
g305
I2
sg306
I2
sg10
V192.168.41.0
p1382
sg308
S''
sg309
I100
sg310
I0
sg311
V192.168.31.1
p1383
sg313
I24
sa(dp1384
g305
I0
sg306
I0
sg10
V192.168.23.0
p1385
sg308
S''
sg309
I100
sg310
I0
sg311
V192.168.23.2
p1386
sg313
I24
sa(dp1387
g305
I0
sg306
I0
sg10
V192.168.13.0
p1388
sg308
S''
sg309
I100
sg310
I0
sg311
V192.168.23.2
p1389
sg313
I24
sa(dp1390
g305
I2
sg306
I0
sg10
V192.168.14.0
p1391
sg308
S''
sg309
I100
sg310
I0
sg311
V192.168.23.2
p1392
sg313
I24
sa(dp1393
g305
I2
sg306
I0
sg10
V192.168.31.0
p1394
sg308
S''
sg309
I100
sg310
I0
sg311
V192.168.23.2
p1395
sg313
I24
sa(dp1396
g305
I0
sg306
I0
sg10
V192.168.51.0
p1397
sg308
S''
sg309
I100
sg310
I0
sg311
V192.168.13.1
p1398
sg313
I24
sa(dp1399
g305
I0
sg306
I0
sg10
V192.168.11.0
p1400
sg308
S''
sg309
I100
sg310
I0
sg311
V192.168.23.1
p1401
sg313
I24
sa(dp1402
g305
I2
sg306
I0
sg10
V192.168.12.0
p1403
sg308
S''
sg309
I100
sg310
I0
sg311
V192.168.23.1
p1404
sg313
I24
sa(dp1405
g305
I2
sg306
I0
sg10
V192.168.5.0
p1406
sg308
S''
sg309
I100
sg310
I0
sg311
V192.168.13.1
p1407
sg313
I24
sa(dp1408
g305
I2
sg306
I74
sg10
V192.168.7.0
p1409
sg308
S''
sg309
I100
sg310
I0
sg311
V192.168.23.1
p1410
sg313
I24
sa(dp1411
g305
I2
sg306
I128
sg10
V192.168.79.0
p1412
sg308
S''
sg309
I100
sg310
I0
sg311
V192.168.23.1
p1413
sg313
I24
sa(dp1414
g305
I2
sg306
I128
sg10
V192.168.27.0
p1415
sg308
S''
sg309
I100
sg310
I0
sg311
V192.168.23.1
p1416
sg313
I24
sa(dp1417
g305
I2
sg306
I128
sg10
V192.168.17.0
p1418
sg308
S''
sg309
I100
sg310
I0
sg311
V192.168.23.1
p1419
sg313
I24
sa(dp1420
g305
I2
sg306
I128
sg10
V192.168.4.0
p1421
sg308
S''
sg309
I100
sg310
I0
sg311
V192.168.13.1
p1422
sg313
I24
sa(dp1423
g305
I2
sg306
I129
sg10
V192.168.99.99
p1424
sg308
S''
sg309
I100
sg310
I0
sg311
V192.168.23.1
p1425
sg313
I32
sa(dp1426
g305
I2
sg306
I129
sg10
V192.168.1.0
p1427
sg308
S''
sg309
I100
sg310
I0
sg311
V192.168.23.1
p1428
sg313
I24
sa(dp1429
g305
I2
sg306
I138
sg10
V192.168.39.0
p1430
sg308
S''
sg309
I100
sg310
I0
sg311
V192.168.23.1
p1431
sg313
I24
sa(dp1432
g305
I2
sg306
I138
sg10
V192.168.3.0
p1433
sg308
S''
sg309
I100
sg310
I0
sg311
V192.168.23.1
p1434
sg313
I24
sa(dp1435
g305
I2
sg306
I192
sg10
V192.168.29.0
p1436
sg308
S''
sg309
I100
sg310
I0
sg311
V192.168.23.1
p1437
sg313
I24
sa(dp1438
g305
I2
sg306
I192
sg10
V192.168.10.0
p1439
sg308
S''
sg309
I100
sg310
I0
sg311
V192.168.23.1
p1440
sg313
I24
sa(dp1441
g305
I2
sg306
I192
sg10
V192.168.9.0
p1442
sg308
S''
sg309
I100
sg310
I0
sg311
V192.168.23.1
p1443
sg313
I24
sa(dp1444
g305
I2
sg306
I192
sg10
V192.168.6.0
p1445
sg308
S''
sg309
I100
sg310
I0
sg311
V192.168.23.1
p1446
sg313
I24
sa(dp1447
g305
I2
sg306
I192
sg10
V192.168.2.0
p1448
sg308
S''
sg309
I100
sg310
I0
sg311
V192.168.23.1
p1449
sg313
I24
sa(dp1450
g305
I2
sg306
I2
sg10
V10.21.3.0
p1451
sg308
S''
sg309
I100
sg310
I0
sg311
V192.168.41.2
p1452
sg313
I24
sa(dp1453
g305
I0
sg306
I0
sg10
V192.168.51.0
p1454
sg308
S''
sg309
I100
sg310
I0
sg311
V192.168.11.1
p1455
sg313
I24
sa(dp1456
g305
I0
sg306
I0
sg10
V192.168.11.0
p1457
sg308
S''
sg309
I100
sg310
I0
sg311
V192.168.11.1
p1458
sg313
I24
sa(dp1459
g305
I2
sg306
I0
sg10
V192.168.41.0
p1460
sg308
S''
sg309
I100
sg310
I0
sg311
V192.168.11.1
p1461
sg313
I24
sa(dp1462
g305
I2
sg306
I0
sg10
V192.168.31.0
p1463
sg308
S''
sg309
I100
sg310
I0
sg311
V192.168.11.1
p1464
sg313
I24
sa(dp1465
g305
I2
sg306
I65
sg10
V192.168.14.0
p1466
sg308
S''
sg309
I100
sg310
I0
sg311
V192.168.31.2
p1467
sg313
I24
sa(dp1468
g305
I0
sg306
I0
sg10
V192.168.13.0
p1469
sg308
S''
sg309
I100
sg310
I0
sg311
V192.168.51.1
p1470
sg313
I24
sa(dp1471
g305
I0
sg306
I0
sg10
V192.168.23.0
p1472
sg308
S''
sg309
I100
sg310
I0
sg311
V192.168.11.2
p1473
sg313
I24
sa(dp1474
g305
I2
sg306
I0
sg10
V192.168.5.0
p1475
sg308
S''
sg309
I100
sg310
I0
sg311
V192.168.51.1
p1476
sg313
I24
sa(dp1477
g305
I2
sg306
I0
sg10
V192.168.12.0
p1478
sg308
S''
sg309
I100
sg310
I0
sg311
V192.168.11.2
p1479
sg313
I24
sa(dp1480
g305
I2
sg306
I74
sg10
V192.168.7.0
p1481
sg308
S''
sg309
I100
sg310
I0
sg311
V192.168.11.2
p1482
sg313
I24
sa(dp1483
g305
I2
sg306
I128
sg10
V192.168.4.0
p1484
sg308
S''
sg309
I100
sg310
I0
sg311
V192.168.51.1
p1485
sg313
I24
sa(dp1486
g305
I2
sg306
I128
sg10
V192.168.79.0
p1487
sg308
S''
sg309
I100
sg310
I0
sg311
V192.168.11.2
p1488
sg313
I24
sa(dp1489
g305
I2
sg306
I128
sg10
V192.168.27.0
p1490
sg308
S''
sg309
I100
sg310
I0
sg311
V192.168.11.2
p1491
sg313
I24
sa(dp1492
g305
I2
sg306
I128
sg10
V192.168.17.0
p1493
sg308
S''
sg309
I100
sg310
I0
sg311
V192.168.11.2
p1494
sg313
I24
sa(dp1495
g305
I2
sg306
I129
sg10
V192.168.99.99
p1496
sg308
S''
sg309
I100
sg310
I0
sg311
V192.168.11.2
p1497
sg313
I32
sa(dp1498
g305
I2
sg306
I129
sg10
V192.168.1.0
p1499
sg308
S''
sg309
I100
sg310
I0
sg311
V192.168.11.2
p1500
sg313
I24
sa(dp1501
g305
I2
sg306
I138
sg10
V192.168.39.0
p1502
sg308
S''
sg309
I100
sg310
I0
sg311
V192.168.11.2
p1503
sg313
I24
sa(dp1504
g305
I2
sg306
I138
sg10
V192.168.3.0
p1505
sg308
S''
sg309
I100
sg310
I0
sg311
V192.168.11.2
p1506
sg313
I24
sa(dp1507
g305
I2
sg306
I192
sg10
V192.168.29.0
p1508
sg308
S''
sg309
I100
sg310
I0
sg311
V192.168.11.2
p1509
sg313
I24
sa(dp1510
g305
I2
sg306
I192
sg10
V192.168.10.0
p1511
sg308
S''
sg309
I100
sg310
I0
sg311
V192.168.11.2
p1512
sg313
I24
sa(dp1513
g305
I2
sg306
I192
sg10
V192.168.9.0
p1514
sg308
S''
sg309
I100
sg310
I0
sg311
V192.168.11.2
p1515
sg313
I24
sa(dp1516
g305
I2
sg306
I192
sg10
V192.168.6.0
p1517
sg308
S''
sg309
I100
sg310
I0
sg311
V192.168.11.2
p1518
sg313
I24
sa(dp1519
g305
I2
sg306
I192
sg10
V192.168.2.0
p1520
sg308
S''
sg309
I100
sg310
I0
sg311
V192.168.11.2
p1521
sg313
I24
sa(dp1522
g305
I0
sg306
I0
sg10
V192.168.23.0
p1523
sg308
S''
sg309
I100
sg310
I0
sg311
V192.168.23.1
p1524
sg313
I24
sa(dp1525
g305
I0
sg306
I0
sg10
V192.168.13.0
p1526
sg308
S''
sg309
I100
sg310
I0
sg311
V192.168.13.1
p1527
sg313
I24
sa(dp1528
g305
I0
sg306
I0
sg10
V192.168.51.0
p1529
sg308
S''
sg309
I100
sg310
I0
sg311
V192.168.51.1
p1530
sg313
I24
sa(dp1531
g305
I0
sg306
I0
sg10
V192.168.11.0
p1532
sg308
S''
sg309
I100
sg310
I0
sg311
V192.168.11.2
p1533
sg313
I24
sa(dp1534
g305
I2
sg306
I257
sg10
V192.168.99.99
p1535
sg308
S''
sg309
I100
sg310
I0
sg311
V192.168.13.1
p1536
sg313
I32
sa(dp1537
g305
I2
sg306
I257
sg10
V192.168.1.0
p1538
sg308
S''
sg309
I100
sg310
I0
sg311
V192.168.13.1
p1539
sg313
I24
sa(dp1540
g305
I2
sg306
I256
sg10
V192.168.79.0
p1541
sg308
S''
sg309
I100
sg310
I0
sg311
V192.168.13.1
p1542
sg313
I24
sa(dp1543
g305
I2
sg306
I256
sg10
V192.168.29.0
p1544
sg308
S''
sg309
I100
sg310
I0
sg311
V192.168.13.1
p1545
sg313
I24
sa(dp1546
g305
I2
sg306
I256
sg10
V192.168.27.0
p1547
sg308
S''
sg309
I100
sg310
I0
sg311
V192.168.13.1
p1548
sg313
I24
sa(dp1549
g305
I2
sg306
I256
sg10
V192.168.17.0
p1550
sg308
S''
sg309
I100
sg310
I0
sg311
V192.168.13.1
p1551
sg313
I24
sa(dp1552
g305
I2
sg306
I256
sg10
V192.168.12.0
p1553
sg308
S''
sg309
I100
sg310
I0
sg311
V192.168.13.1
p1554
sg313
I24
sa(dp1555
g305
I2
sg306
I256
sg10
V192.168.10.0
p1556
sg308
S''
sg309
I100
sg310
I0
sg311
V192.168.13.1
p1557
sg313
I24
sa(dp1558
g305
I2
sg306
I256
sg10
V192.168.9.0
p1559
sg308
S''
sg309
I100
sg310
I0
sg311
V192.168.13.1
p1560
sg313
I24
sa(dp1561
g305
I2
sg306
I256
sg10
V192.168.6.0
p1562
sg308
S''
sg309
I100
sg310
I0
sg311
V192.168.13.1
p1563
sg313
I24
sa(dp1564
g305
I2
sg306
I256
sg10
V192.168.2.0
p1565
sg308
S''
sg309
I100
sg310
I0
sg311
V192.168.13.1
p1566
sg313
I24
sa(dp1567
g305
I2
sg306
I192
sg10
V192.168.39.0
p1568
sg308
S''
sg309
I100
sg310
I0
sg311
V192.168.13.1
p1569
sg313
I24
sa(dp1570
g305
I2
sg306
I192
sg10
V192.168.7.0
p1571
sg308
S''
sg309
I100
sg310
I0
sg311
V192.168.13.1
p1572
sg313
I24
sa(dp1573
g305
I2
sg306
I192
sg10
V192.168.3.0
p1574
sg308
S''
sg309
I100
sg310
I0
sg311
V192.168.13.1
p1575
sg313
I24
sa(dp1576
g305
I0
sg306
I0
sg10
V192.168.11.0
p1577
sg308
S''
sg309
I100
sg310
I0
sg311
V192.168.23.1
p1578
sg313
I24
sa(dp1579
g305
I2
sg306
I257
sg10
V192.168.99.99
p1580
sg308
S''
sg309
I100
sg310
I0
sg311
V192.168.51.1
p1581
sg313
I32
sa(dp1582
g305
I2
sg306
I2
sg10
V10.21.3.0
p1583
sg308
S''
sg309
I100
sg310
I0
sg311
V192.168.41.2
p1584
sg313
I24
sa(dp1585
g305
I0
sg306
I0
sg10
V192.168.51.0
p1586
sg308
S''
sg309
I100
sg310
I0
sg311
V192.168.11.1
p1587
sg313
I24
sa(dp1588
g305
I0
sg306
I0
sg10
V192.168.11.0
p1589
sg308
S''
sg309
I100
sg310
I0
sg311
V192.168.11.1
p1590
sg313
I24
sa(dp1591
g305
I2
sg306
I0
sg10
V192.168.41.0
p1592
sg308
S''
sg309
I100
sg310
I0
sg311
V192.168.11.1
p1593
sg313
I24
sa(dp1594
g305
I2
sg306
I0
sg10
V192.168.31.0
p1595
sg308
S''
sg309
I100
sg310
I0
sg311
V192.168.11.1
p1596
sg313
I24
sa(dp1597
g305
I2
sg306
I65
sg10
V192.168.14.0
p1598
sg308
S''
sg309
I100
sg310
I0
sg311
V192.168.31.2
p1599
sg313
I24
sa(dp1600
g305
I0
sg306
I0
sg10
V192.168.23.0
p1601
sg308
S''
sg309
I100
sg310
I0
sg311
V192.168.11.2
p1602
sg313
I24
sa(dp1603
g305
I0
sg306
I0
sg10
V192.168.13.0
p1604
sg308
S''
sg309
I100
sg310
I0
sg311
V192.168.51.1
p1605
sg313
I24
sa(dp1606
g305
I2
sg306
I0
sg10
V192.168.12.0
p1607
sg308
S''
sg309
I100
sg310
I0
sg311
V192.168.11.2
p1608
sg313
I24
sa(dp1609
g305
I2
sg306
I0
sg10
V192.168.5.0
p1610
sg308
S''
sg309
I100
sg310
I0
sg311
V192.168.51.1
p1611
sg313
I24
sa(dp1612
g305
I2
sg306
I74
sg10
V192.168.7.0
p1613
sg308
S''
sg309
I100
sg310
I0
sg311
V192.168.11.2
p1614
sg313
I24
sa(dp1615
g305
I2
sg306
I128
sg10
V192.168.79.0
p1616
sg308
S''
sg309
I100
sg310
I0
sg311
V192.168.11.2
p1617
sg313
I24
sa(dp1618
g305
I2
sg306
I128
sg10
V192.168.27.0
p1619
sg308
S''
sg309
I100
sg310
I0
sg311
V192.168.11.2
p1620
sg313
I24
sa(dp1621
g305
I2
sg306
I128
sg10
V192.168.17.0
p1622
sg308
S''
sg309
I100
sg310
I0
sg311
V192.168.11.2
p1623
sg313
I24
sa(dp1624
g305
I2
sg306
I128
sg10
V192.168.4.0
p1625
sg308
S''
sg309
I100
sg310
I0
sg311
V192.168.51.1
p1626
sg313
I24
sa(dp1627
g305
I2
sg306
I129
sg10
V192.168.1.0
p1628
sg308
S''
sg309
I100
sg310
I0
sg311
V192.168.11.2
p1629
sg313
I24
sa(dp1630
g305
I2
sg306
I138
sg10
V192.168.39.0
p1631
sg308
S''
sg309
I100
sg310
I0
sg311
V192.168.11.2
p1632
sg313
I24
sa(dp1633
g305
I2
sg306
I138
sg10
V192.168.3.0
p1634
sg308
S''
sg309
I100
sg310
I0
sg311
V192.168.11.2
p1635
sg313
I24
sa(dp1636
g305
I2
sg306
I192
sg10
V192.168.29.0
p1637
sg308
S''
sg309
I100
sg310
I0
sg311
V192.168.11.2
p1638
sg313
I24
sa(dp1639
g305
I2
sg306
I192
sg10
V192.168.10.0
p1640
sg308
S''
sg309
I100
sg310
I0
sg311
V192.168.11.2
p1641
sg313
I24
sa(dp1642
g305
I2
sg306
I192
sg10
V192.168.9.0
p1643
sg308
S''
sg309
I100
sg310
I0
sg311
V192.168.11.2
p1644
sg313
I24
sa(dp1645
g305
I2
sg306
I192
sg10
V192.168.6.0
p1646
sg308
S''
sg309
I100
sg310
I0
sg311
V192.168.11.2
p1647
sg313
I24
sa(dp1648
g305
I2
sg306
I192
sg10
V192.168.2.0
p1649
sg308
S''
sg309
I100
sg310
I0
sg311
V192.168.11.2
p1650
sg313
I24
sa(dp1651
g305
I2
sg306
I3
sg10
V10.21.3.0
p1652
sg308
S''
sg309
I100
sg310
I0
sg311
V192.168.31.1
p1653
sg313
I24
sa(dp1654
g305
I2
sg306
I2
sg10
V192.168.41.0
p1655
sg308
S''
sg309
I100
sg310
I0
sg311
V192.168.31.1
p1656
sg313
I24
sa(dp1657
g305
I0
sg306
I0
sg10
V192.168.23.0
p1658
sg308
S''
sg309
I100
sg310
I0
sg311
V192.168.23.2
p1659
sg313
I24
sa(dp1660
g305
I0
sg306
I0
sg10
V192.168.13.0
p1661
sg308
S''
sg309
I100
sg310
I0
sg311
V192.168.23.2
p1662
sg313
I24
sa(dp1663
g305
I2
sg306
I0
sg10
V192.168.31.0
p1664
sg308
S''
sg309
I100
sg310
I0
sg311
V192.168.23.2
p1665
sg313
I24
sa(dp1666
g305
I2
sg306
I0
sg10
V192.168.14.0
p1667
sg308
S''
sg309
I100
sg310
I0
sg311
V192.168.23.2
p1668
sg313
I24
sa(dp1669
g305
I0
sg306
I0
sg10
V192.168.51.0
p1670
sg308
S''
sg309
I100
sg310
I0
sg311
V192.168.13.1
p1671
sg313
I24
sa(dp1672
g305
I0
sg306
I0
sg10
V192.168.11.0
p1673
sg308
S''
sg309
I100
sg310
I0
sg311
V192.168.23.1
p1674
sg313
I24
sa(dp1675
g305
I2
sg306
I0
sg10
V192.168.12.0
p1676
sg308
S''
sg309
I100
sg310
I0
sg311
V192.168.23.1
p1677
sg313
I24
sa(dp1678
g305
I2
sg306
I0
sg10
V192.168.5.0
p1679
sg308
S''
sg309
I100
sg310
I0
sg311
V192.168.13.1
p1680
sg313
I24
sa(dp1681
g305
I2
sg306
I74
sg10
V192.168.7.0
p1682
sg308
S''
sg309
I100
sg310
I0
sg311
V192.168.23.1
p1683
sg313
I24
sa(dp1684
g305
I2
sg306
I128
sg10
V192.168.79.0
p1685
sg308
S''
sg309
I100
sg310
I0
sg311
V192.168.23.1
p1686
sg313
I24
sa(dp1687
g305
I2
sg306
I128
sg10
V192.168.27.0
p1688
sg308
S''
sg309
I100
sg310
I0
sg311
V192.168.23.1
p1689
sg313
I24
sa(dp1690
g305
I2
sg306
I128
sg10
V192.168.17.0
p1691
sg308
S''
sg309
I100
sg310
I0
sg311
V192.168.23.1
p1692
sg313
I24
sa(dp1693
g305
I2
sg306
I128
sg10
V192.168.4.0
p1694
sg308
S''
sg309
I100
sg310
I0
sg311
V192.168.13.1
p1695
sg313
I24
sa(dp1696
g305
I2
sg306
I129
sg10
V192.168.1.0
p1697
sg308
S''
sg309
I100
sg310
I0
sg311
V192.168.23.1
p1698
sg313
I24
sa(dp1699
g305
I2
sg306
I138
sg10
V192.168.39.0
p1700
sg308
S''
sg309
I100
sg310
I0
sg311
V192.168.23.1
p1701
sg313
I24
sa(dp1702
g305
I2
sg306
I138
sg10
V192.168.3.0
p1703
sg308
S''
sg309
I100
sg310
I0
sg311
V192.168.23.1
p1704
sg313
I24
sa(dp1705
g305
I2
sg306
I192
sg10
V192.168.29.0
p1706
sg308
S''
sg309
I100
sg310
I0
sg311
V192.168.23.1
p1707
sg313
I24
sa(dp1708
g305
I2
sg306
I192
sg10
V192.168.10.0
p1709
sg308
S''
sg309
I100
sg310
I0
sg311
V192.168.23.1
p1710
sg313
I24
sa(dp1711
g305
I2
sg306
I192
sg10
V192.168.9.0
p1712
sg308
S''
sg309
I100
sg310
I0
sg311
V192.168.23.1
p1713
sg313
I24
sa(dp1714
g305
I2
sg306
I192
sg10
V192.168.6.0
p1715
sg308
S''
sg309
I100
sg310
I0
sg311
V192.168.23.1
p1716
sg313
I24
sa(dp1717
g305
I2
sg306
I192
sg10
V192.168.2.0
p1718
sg308
S''
sg309
I100
sg310
I0
sg311
V192.168.23.1
p1719
sg313
I24
sa(dp1720
g305
I0
sg306
I0
sg10
V172.168.2.0
p1721
sg308
S''
sg309
I100
sg310
I0
sg311
V192.168.23.2
p1722
sg313
I24
sa(dp1723
g305
I2
sg306
I0
sg10
V172.168.1.0
p1724
sg308
S''
sg309
I100
sg310
I0
sg311
V172.168.2.1
p1725
sg313
I24
sa(dp1726
g305
I2
sg306
I0
sg10
V172.168.15.0
p1727
sg308
S''
sg309
I100
sg310
I0
sg311
V172.168.2.1
p1728
sg313
I24
sa(dp1729
g305
I2
sg306
I0
sg10
V172.168.16.0
p1730
sg308
S''
sg309
I100
sg310
I0
sg311
V172.168.2.1
p1731
sg313
I24
sa(dp1732
g305
I2
sg306
I128
sg10
V172.168.17.0
p1733
sg308
S''
sg309
I100
sg310
I0
sg311
V172.168.2.1
p1734
sg313
I24
sa(dp1735
g305
I2
sg306
I3
sg10
V10.21.3.0
p1736
sg308
S''
sg309
I100
sg310
I0
sg311
V192.168.31.1
p1737
sg313
I24
sa(dp1738
g305
I2
sg306
I2
sg10
V10.21.3.0
p1739
sg308
S''
sg309
I100
sg310
I0
sg311
V192.168.41.2
p1740
sg313
I24
sa(dp1741
g305
I2
sg306
I192
sg10
V192.168.6.0
p1742
sg308
S''
sg309
I100
sg310
I0
sg311
V192.168.11.2
p1743
sg313
I24
sa(dp1744
g305
I2
sg306
I192
sg10
V192.168.6.0
p1745
sg308
S''
sg309
I100
sg310
I0
sg311
V192.168.23.1
p1746
sg313
I24
sasg1004
(lp1747
(dp1748
g1007
I2
sg106
I0
sg1008
V192.168.13.2
p1749
sg1010
V255.255.255.0
p1750
sg1012
V0.0.0.0
p1751
sg1014
V192.168.39.0
p1752
sa(dp1753
g1007
I2
sg106
I0
sg1008
V192.168.11.1
p1754
sg1010
V255.255.255.0
p1755
sg1012
V0.0.0.0
p1756
sg1014
V192.168.51.0
p1757
sa(dp1758
g1007
I2
sg106
I0
sg1008
V192.168.13.2
p1759
sg1010
V255.255.255.0
p1760
sg1012
V0.0.0.0
p1761
sg1014
V192.168.51.0
p1762
sa(dp1763
g1007
I2
sg106
I0
sg1008
V192.168.11.1
p1764
sg1010
V255.255.255.0
p1765
sg1012
V0.0.0.0
p1766
sg1014
V192.168.79.0
p1767
sa(dp1768
g1007
I2
sg106
I0
sg1008
V192.168.13.2
p1769
sg1010
V255.255.255.0
p1770
sg1012
V0.0.0.0
p1771
sg1014
V192.168.79.0
p1772
sa(dp1773
g1007
I2
sg106
I0
sg1008
V192.168.11.1
p1774
sg1010
V255.255.255.0
p1775
sg1012
V0.0.0.0
p1776
sg1014
V192.168.1.0
p1777
sa(dp1778
g1007
I2
sg106
I0
sg1008
V192.168.13.2
p1779
sg1010
V255.255.255.0
p1780
sg1012
V0.0.0.0
p1781
sg1014
V192.168.1.0
p1782
sa(dp1783
g1007
I2
sg106
I0
sg1008
V192.168.11.1
p1784
sg1010
V255.255.255.0
p1785
sg1012
V0.0.0.0
p1786
sg1014
V192.168.2.0
p1787
sa(dp1788
g1007
I2
sg106
I0
sg1008
V192.168.13.2
p1789
sg1010
V255.255.255.0
p1790
sg1012
V0.0.0.0
p1791
sg1014
V192.168.2.0
p1792
sa(dp1793
g1007
I2
sg106
I0
sg1008
V192.168.11.1
p1794
sg1010
V255.255.255.0
p1795
sg1012
V0.0.0.0
p1796
sg1014
V192.168.3.0
p1797
sa(dp1798
g1007
I2
sg106
I0
sg1008
V192.168.13.2
p1799
sg1010
V255.255.255.0
p1800
sg1012
V0.0.0.0
p1801
sg1014
V192.168.3.0
p1802
sa(dp1803
g1007
I2
sg106
I0
sg1008
V192.168.11.1
p1804
sg1010
V255.255.255.0
p1805
sg1012
V0.0.0.0
p1806
sg1014
V192.168.4.0
p1807
sa(dp1808
g1007
I2
sg106
I0
sg1008
V192.168.13.2
p1809
sg1010
V255.255.255.0
p1810
sg1012
V0.0.0.0
p1811
sg1014
V192.168.4.0
p1812
sa(dp1813
g1007
I2
sg106
I0
sg1008
V192.168.11.1
p1814
sg1010
V255.255.255.0
p1815
sg1012
V0.0.0.0
p1816
sg1014
V192.168.5.0
p1817
sa(dp1818
g1007
I2
sg106
I0
sg1008
V192.168.13.2
p1819
sg1010
V255.255.255.0
p1820
sg1012
V0.0.0.0
p1821
sg1014
V192.168.5.0
p1822
sa(dp1823
g1007
I2
sg106
I0
sg1008
V192.168.11.1
p1824
sg1010
V255.255.255.0
p1825
sg1012
V0.0.0.0
p1826
sg1014
V192.168.7.0
p1827
sa(dp1828
g1007
I2
sg106
I0
sg1008
V192.168.13.2
p1829
sg1010
V255.255.255.0
p1830
sg1012
V0.0.0.0
p1831
sg1014
V192.168.7.0
p1832
sa(dp1833
g1007
I2
sg106
I0
sg1008
V192.168.11.1
p1834
sg1010
V255.255.255.0
p1835
sg1012
V0.0.0.0
p1836
sg1014
V192.168.9.0
p1837
sa(dp1838
g1007
I2
sg106
I0
sg1008
V192.168.13.2
p1839
sg1010
V255.255.255.0
p1840
sg1012
V0.0.0.0
p1841
sg1014
V192.168.9.0
p1842
sa(dp1843
g1007
I2
sg106
I0
sg1008
V192.168.11.1
p1844
sg1010
V255.255.255.0
p1845
sg1012
V0.0.0.0
p1846
sg1014
V192.168.10.0
p1847
sa(dp1848
g1007
I2
sg106
I0
sg1008
V192.168.13.2
p1849
sg1010
V255.255.255.0
p1850
sg1012
V0.0.0.0
p1851
sg1014
V192.168.10.0
p1852
sa(dp1853
g1007
I2
sg106
I0
sg1008
V192.168.11.1
p1854
sg1010
V255.255.255.0
p1855
sg1012
V0.0.0.0
p1856
sg1014
V192.168.11.0
p1857
sa(dp1858
g1007
I2
sg106
I0
sg1008
V192.168.13.2
p1859
sg1010
V255.255.255.0
p1860
sg1012
V0.0.0.0
p1861
sg1014
V192.168.11.0
p1862
sa(dp1863
g1007
I2
sg106
I0
sg1008
V192.168.11.1
p1864
sg1010
V255.255.255.0
p1865
sg1012
V0.0.0.0
p1866
sg1014
V192.168.12.0
p1867
sa(dp1868
g1007
I2
sg106
I0
sg1008
V192.168.13.2
p1869
sg1010
V255.255.255.0
p1870
sg1012
V0.0.0.0
p1871
sg1014
V192.168.12.0
p1872
sa(dp1873
g1007
I2
sg106
I0
sg1008
V192.168.11.1
p1874
sg1010
V255.255.255.0
p1875
sg1012
V0.0.0.0
p1876
sg1014
V192.168.13.0
p1877
sa(dp1878
g1007
I2
sg106
I0
sg1008
V192.168.13.2
p1879
sg1010
V255.255.255.0
p1880
sg1012
V0.0.0.0
p1881
sg1014
V192.168.13.0
p1882
sa(dp1883
g1007
I2
sg106
I0
sg1008
V192.168.11.1
p1884
sg1010
V255.255.255.0
p1885
sg1012
V0.0.0.0
p1886
sg1014
V192.168.17.0
p1887
sa(dp1888
g1007
I2
sg106
I0
sg1008
V192.168.13.2
p1889
sg1010
V255.255.255.0
p1890
sg1012
V0.0.0.0
p1891
sg1014
V192.168.17.0
p1892
sa(dp1893
g1007
I2
sg106
I0
sg1008
V192.168.11.1
p1894
sg1010
V255.255.255.0
p1895
sg1012
V0.0.0.0
p1896
sg1014
V192.168.23.0
p1897
sa(dp1898
g1007
I2
sg106
I0
sg1008
V192.168.13.2
p1899
sg1010
V255.255.255.0
p1900
sg1012
V0.0.0.0
p1901
sg1014
V192.168.23.0
p1902
sa(dp1903
g1007
I2
sg106
I0
sg1008
V192.168.11.1
p1904
sg1010
V255.255.255.0
p1905
sg1012
V0.0.0.0
p1906
sg1014
V192.168.27.0
p1907
sa(dp1908
g1007
I2
sg106
I0
sg1008
V192.168.13.2
p1909
sg1010
V255.255.255.0
p1910
sg1012
V0.0.0.0
p1911
sg1014
V192.168.27.0
p1912
sa(dp1913
g1007
I2
sg106
I0
sg1008
V192.168.11.1
p1914
sg1010
V255.255.255.0
p1915
sg1012
V0.0.0.0
p1916
sg1014
V192.168.29.0
p1917
sa(dp1918
g1007
I2
sg106
I0
sg1008
V192.168.13.2
p1919
sg1010
V255.255.255.0
p1920
sg1012
V0.0.0.0
p1921
sg1014
V192.168.29.0
p1922
sa(dp1923
g1007
I2
sg106
I0
sg1008
V192.168.11.1
p1924
sg1010
V255.255.255.0
p1925
sg1012
V0.0.0.0
p1926
sg1014
V192.168.39.0
p1927
sa(dp1928
g1007
I2
sg106
I0
sg1008
V192.168.13.2
p1929
sg1010
V255.255.255.0
p1930
sg1012
V0.0.0.0
p1931
sg1014
V172.168.2.0
p1932
sa(dp1933
g1007
I2
sg106
I0
sg1008
V192.168.13.2
p1934
sg1010
V255.255.255.0
p1935
sg1012
V0.0.0.0
p1936
sg1014
V172.168.1.0
p1937
sa(dp1938
g1007
I2
sg106
I0
sg1008
V192.168.13.2
p1939
sg1010
V255.255.255.0
p1940
sg1012
V0.0.0.0
p1941
sg1014
V172.168.15.0
p1942
sa(dp1943
g1007
I2
sg106
I0
sg1008
V192.168.13.2
p1944
sg1010
V255.255.255.0
p1945
sg1012
V0.0.0.0
p1946
sg1014
V172.168.16.0
p1947
sa(dp1948
g1007
I2
sg106
I0
sg1008
V192.168.13.2
p1949
sg1010
V255.255.255.0
p1950
sg1012
V0.0.0.0
p1951
sg1014
V172.168.17.0
p1952
sa(dp1953
g1007
I2
sg106
I0
sg1008
V192.168.11.1
p1954
sg1010
V255.255.255.0
p1955
sg1012
V0.0.0.0
p1956
sg1014
V192.168.6.0
p1957
sa(dp1958
g1007
I2
sg106
I0
sg1008
V192.168.13.2
p1959
sg1010
V255.255.255.0
p1960
sg1012
V0.0.0.0
p1961
sg1014
V192.168.6.0
p1962
sassa(dp1963
g3
(dp1964
g5
(lp1965
(dp1966
g8
V172.168.15.2
p1967
sg10
L2896695552L
sg11
V255.255.255.0
p1968
sa(dp1969
g8
V172.168.15.2
p1970
sg10
L2896695040L
sg11
V255.255.255.0
p1971
sa(dp1972
g8
V172.168.16.1
p1973
sg10
L2896695296L
sg11
V255.255.255.0
p1974
sa(dp1975
g8
V172.168.16.1
p1976
sg10
L2896695040L
sg11
V255.255.255.0
p1977
sa(dp1978
g8
V172.168.17.1
p1979
sg10
L2896695552L
sg11
V255.255.255.0
p1980
sa(dp1981
g8
V172.168.17.1
p1982
sg10
L2896695296L
sg11
V255.255.255.0
p1983
sasg97
(lp1984
(dp1985
g8
V172.168.17.1
p1986
sg101
(lp1987
(dp1988
g104
V0.0.0.0
p1989
sg106
I64
sg107
V172.168.15.2
p1990
sg11
V255.255.255.0
p1991
sg110
V172.168.17.1
p1992
sg112
I13653
sa(dp1993
g104
V0.0.0.0
p1994
sg106
I64
sg107
V172.168.16.1
p1995
sg11
V255.255.255.0
p1996
sg110
V172.168.16.2
p1997
sg112
I13655
sasa(dp1998
g8
V172.168.15.2
p1999
sg101
(lp2000
(dp2001
g104
V0.0.0.0
p2002
sg106
I64
sg107
V172.168.17.1
p2003
sg11
V255.255.255.0
p2004
sg110
V172.168.17.2
p2005
sg112
I13645
sa(dp2006
g104
V0.0.0.0
p2007
sg106
I64
sg107
V172.168.16.1
p2008
sg11
V255.255.255.0
p2009
sg110
V172.168.15.2
p2010
sg112
I13647
sasa(dp2011
g8
V172.168.16.1
p2012
sg101
(lp2013
(dp2014
g104
V0.0.0.0
p2015
sg106
I64
sg107
V172.168.17.1
p2016
sg11
V255.255.255.0
p2017
sg110
V172.168.16.1
p2018
sg112
I13649
sa(dp2019
g104
V0.0.0.0
p2020
sg106
I64
sg107
V172.168.15.2
p2021
sg11
V255.255.255.0
p2022
sg110
V172.168.15.1
p2023
sg112
I13651
sasasg275
(lp2024
(dp2025
g278
I13644
sg106
I60
sg107
V192.168.13.2
p2026
sg11
V255.255.255.0
p2027
sg8
V172.168.16.1
p2028
sg110
V172.168.2.1
p2029
sg283
I2
sassg299
I3
sg300
(dp2030
g302
(lp2031
(dp2032
g305
I0
sg306
I0
sg10
V172.168.2.0
p2033
sg308
S''
sg309
I100
sg310
I0
sg311
V172.168.2.1
p2034
sg313
I24
sa(dp2035
g305
I2
sg306
I0
sg10
V172.168.16.0
p2036
sg308
S''
sg309
I100
sg310
I0
sg311
V172.168.2.1
p2037
sg313
I24
sa(dp2038
g305
I2
sg306
I0
sg10
V172.168.15.0
p2039
sg308
S''
sg309
I100
sg310
I0
sg311
V172.168.2.1
p2040
sg313
I24
sa(dp2041
g305
I2
sg306
I0
sg10
V172.168.1.0
p2042
sg308
S''
sg309
I100
sg310
I0
sg311
V172.168.2.1
p2043
sg313
I24
sa(dp2044
g305
I2
sg306
I128
sg10
V172.168.17.0
p2045
sg308
S''
sg309
I100
sg310
I0
sg311
V172.168.15.2
p2046
sg313
I24
sa(dp2047
g305
I0
sg306
I0
sg10
V192.168.51.0
p2048
sg308
S''
sg309
I100
sg310
I0
sg311
V172.168.2.2
p2049
sg313
I24
sa(dp2050
g305
I0
sg306
I0
sg10
V192.168.11.0
p2051
sg308
S''
sg309
I100
sg310
I0
sg311
V172.168.2.2
p2052
sg313
I24
sa(dp2053
g305
I2
sg306
I0
sg10
V192.168.79.0
p2054
sg308
S''
sg309
I100
sg310
I0
sg311
V172.168.2.2
p2055
sg313
I24
sa(dp2056
g305
I2
sg306
I0
sg10
V192.168.39.0
p2057
sg308
S''
sg309
I100
sg310
I0
sg311
V172.168.2.2
p2058
sg313
I24
sa(dp2059
g305
I2
sg306
I0
sg10
V192.168.29.0
p2060
sg308
S''
sg309
I100
sg310
I0
sg311
V172.168.2.2
p2061
sg313
I24
sa(dp2062
g305
I2
sg306
I0
sg10
V192.168.27.0
p2063
sg308
S''
sg309
I100
sg310
I0
sg311
V172.168.2.2
p2064
sg313
I24
sa(dp2065
g305
I2
sg306
I0
sg10
V192.168.17.0
p2066
sg308
S''
sg309
I100
sg310
I0
sg311
V172.168.2.2
p2067
sg313
I24
sa(dp2068
g305
I2
sg306
I0
sg10
V192.168.12.0
p2069
sg308
S''
sg309
I100
sg310
I0
sg311
V172.168.2.2
p2070
sg313
I24
sa(dp2071
g305
I2
sg306
I0
sg10
V192.168.10.0
p2072
sg308
S''
sg309
I100
sg310
I0
sg311
V172.168.2.2
p2073
sg313
I24
sa(dp2074
g305
I2
sg306
I0
sg10
V192.168.9.0
p2075
sg308
S''
sg309
I100
sg310
I0
sg311
V172.168.2.2
p2076
sg313
I24
sa(dp2077
g305
I2
sg306
I0
sg10
V192.168.7.0
p2078
sg308
S''
sg309
I100
sg310
I0
sg311
V172.168.2.2
p2079
sg313
I24
sa(dp2080
g305
I2
sg306
I0
sg10
V192.168.6.0
p2081
sg308
S''
sg309
I100
sg310
I0
sg311
V172.168.2.2
p2082
sg313
I24
sa(dp2083
g305
I2
sg306
I0
sg10
V192.168.5.0
p2084
sg308
S''
sg309
I100
sg310
I0
sg311
V172.168.2.2
p2085
sg313
I24
sa(dp2086
g305
I2
sg306
I0
sg10
V192.168.4.0
p2087
sg308
S''
sg309
I100
sg310
I0
sg311
V172.168.2.2
p2088
sg313
I24
sa(dp2089
g305
I2
sg306
I0
sg10
V192.168.3.0
p2090
sg308
S''
sg309
I100
sg310
I0
sg311
V172.168.2.2
p2091
sg313
I24
sa(dp2092
g305
I2
sg306
I0
sg10
V192.168.2.0
p2093
sg308
S''
sg309
I100
sg310
I0
sg311
V172.168.2.2
p2094
sg313
I24
sa(dp2095
g305
I2
sg306
I0
sg10
V192.168.1.0
p2096
sg308
S''
sg309
I100
sg310
I0
sg311
V172.168.2.2
p2097
sg313
I24
sa(dp2098
g305
I2
sg306
I0
sg10
V192.168.31.0
p2099
sg308
S''
sg309
I100
sg310
I0
sg311
V172.168.2.2
p2100
sg313
I24
sa(dp2101
g305
I2
sg306
I0
sg10
V192.168.14.0
p2102
sg308
S''
sg309
I100
sg310
I0
sg311
V172.168.2.2
p2103
sg313
I24
sa(dp2104
g305
I2
sg306
I3
sg10
V10.21.3.0
p2105
sg308
S''
sg309
I100
sg310
I0
sg311
V172.168.2.2
p2106
sg313
I24
sa(dp2107
g305
I0
sg306
I0
sg10
V192.168.23.0
p2108
sg308
S''
sg309
I100
sg310
I0
sg311
V172.168.2.2
p2109
sg313
I24
sa(dp2110
g305
I0
sg306
I0
sg10
V192.168.13.0
p2111
sg308
S''
sg309
I100
sg310
I0
sg311
V172.168.2.2
p2112
sg313
I24
sa(dp2113
g305
I2
sg306
I2
sg10
V192.168.41.0
p2114
sg308
S''
sg309
I100
sg310
I0
sg311
V172.168.2.2
p2115
sg313
I24
sa(dp2116
g305
I2
sg306
I0
sg10
V192.168.6.0
p2117
sg308
S''
sg309
I100
sg310
I0
sg311
V172.168.2.2
p2118
sg313
I24
sasg1004
(lp2119
(dp2120
g1007
I2
sg106
I0
sg1008
V172.168.16.1
p2121
sg1010
V255.255.255.0
p2122
sg1012
V0.0.0.0
p2123
sg1014
V10.21.3.0
p2124
sa(dp2125
g1007
I2
sg106
I0
sg1008
V172.168.16.1
p2126
sg1010
V255.255.255.0
p2127
sg1012
V0.0.0.0
p2128
sg1014
V172.168.2.0
p2129
sa(dp2130
g1007
I2
sg106
I0
sg1008
V172.168.16.1
p2131
sg1010
V255.255.255.0
p2132
sg1012
V0.0.0.0
p2133
sg1014
V192.168.1.0
p2134
sa(dp2135
g1007
I2
sg106
I0
sg1008
V172.168.16.1
p2136
sg1010
V255.255.255.0
p2137
sg1012
V0.0.0.0
p2138
sg1014
V192.168.2.0
p2139
sa(dp2140
g1007
I2
sg106
I0
sg1008
V172.168.16.1
p2141
sg1010
V255.255.255.0
p2142
sg1012
V0.0.0.0
p2143
sg1014
V192.168.3.0
p2144
sa(dp2145
g1007
I2
sg106
I0
sg1008
V172.168.16.1
p2146
sg1010
V255.255.255.0
p2147
sg1012
V0.0.0.0
p2148
sg1014
V192.168.4.0
p2149
sa(dp2150
g1007
I2
sg106
I0
sg1008
V172.168.16.1
p2151
sg1010
V255.255.255.0
p2152
sg1012
V0.0.0.0
p2153
sg1014
V192.168.5.0
p2154
sa(dp2155
g1007
I2
sg106
I0
sg1008
V172.168.16.1
p2156
sg1010
V255.255.255.0
p2157
sg1012
V0.0.0.0
p2158
sg1014
V192.168.7.0
p2159
sa(dp2160
g1007
I2
sg106
I0
sg1008
V172.168.16.1
p2161
sg1010
V255.255.255.0
p2162
sg1012
V0.0.0.0
p2163
sg1014
V192.168.9.0
p2164
sa(dp2165
g1007
I2
sg106
I0
sg1008
V172.168.16.1
p2166
sg1010
V255.255.255.0
p2167
sg1012
V0.0.0.0
p2168
sg1014
V192.168.10.0
p2169
sa(dp2170
g1007
I2
sg106
I0
sg1008
V172.168.16.1
p2171
sg1010
V255.255.255.0
p2172
sg1012
V0.0.0.0
p2173
sg1014
V192.168.11.0
p2174
sa(dp2175
g1007
I2
sg106
I0
sg1008
V172.168.16.1
p2176
sg1010
V255.255.255.0
p2177
sg1012
V0.0.0.0
p2178
sg1014
V192.168.12.0
p2179
sa(dp2180
g1007
I2
sg106
I0
sg1008
V172.168.16.1
p2181
sg1010
V255.255.255.0
p2182
sg1012
V0.0.0.0
p2183
sg1014
V192.168.13.0
p2184
sa(dp2185
g1007
I2
sg106
I0
sg1008
V172.168.16.1
p2186
sg1010
V255.255.255.0
p2187
sg1012
V0.0.0.0
p2188
sg1014
V192.168.14.0
p2189
sa(dp2190
g1007
I2
sg106
I0
sg1008
V172.168.16.1
p2191
sg1010
V255.255.255.0
p2192
sg1012
V0.0.0.0
p2193
sg1014
V192.168.17.0
p2194
sa(dp2195
g1007
I2
sg106
I0
sg1008
V172.168.16.1
p2196
sg1010
V255.255.255.0
p2197
sg1012
V0.0.0.0
p2198
sg1014
V192.168.23.0
p2199
sa(dp2200
g1007
I2
sg106
I0
sg1008
V172.168.16.1
p2201
sg1010
V255.255.255.0
p2202
sg1012
V0.0.0.0
p2203
sg1014
V192.168.27.0
p2204
sa(dp2205
g1007
I2
sg106
I0
sg1008
V172.168.16.1
p2206
sg1010
V255.255.255.0
p2207
sg1012
V0.0.0.0
p2208
sg1014
V192.168.29.0
p2209
sa(dp2210
g1007
I2
sg106
I0
sg1008
V172.168.16.1
p2211
sg1010
V255.255.255.0
p2212
sg1012
V0.0.0.0
p2213
sg1014
V192.168.31.0
p2214
sa(dp2215
g1007
I2
sg106
I0
sg1008
V172.168.16.1
p2216
sg1010
V255.255.255.0
p2217
sg1012
V0.0.0.0
p2218
sg1014
V192.168.39.0
p2219
sa(dp2220
g1007
I2
sg106
I0
sg1008
V172.168.16.1
p2221
sg1010
V255.255.255.0
p2222
sg1012
V0.0.0.0
p2223
sg1014
V192.168.41.0
p2224
sa(dp2225
g1007
I2
sg106
I0
sg1008
V172.168.16.1
p2226
sg1010
V255.255.255.0
p2227
sg1012
V0.0.0.0
p2228
sg1014
V192.168.51.0
p2229
sa(dp2230
g1007
I2
sg106
I0
sg1008
V172.168.16.1
p2231
sg1010
V255.255.255.0
p2232
sg1012
V0.0.0.0
p2233
sg1014
V192.168.79.0
p2234
sa(dp2235
g1007
I2
sg106
I0
sg1008
V172.168.16.1
p2236
sg1010
V255.255.255.0
p2237
sg1012
V0.0.0.0
p2238
sg1014
V192.168.6.0
p2239
sassa.