(lp1
(dp2
S'Topo'
p3
(dp4
S'stubs'
p5
(lp6
(dp7
S'routerId'
p8
V192.168.2.1
p9
sS'prefix'
p10
L3232260963L
sS'mask'
p11
V255.255.255.255
p12
sa(dp13
g8
V192.168.2.1
p14
sg10
L3232239872L
sg11
V255.255.255.0
p15
sa(dp16
g8
V192.168.2.1
p17
sg10
L3232237824L
sg11
V255.255.255.0
p18
sa(dp19
g8
V192.168.2.1
p20
sg10
L3232236032L
sg11
V255.255.255.0
p21
sa(dp22
g8
V192.168.2.2
p23
sg10
L3232242944L
sg11
V255.255.255.0
p24
sa(dp25
g8
V192.168.2.2
p26
sg10
L3232236288L
sg11
V255.255.255.0
p27
sa(dp28
g8
V192.168.2.2
p29
sg10
L3232236032L
sg11
V255.255.255.0
p30
sa(dp31
g8
V192.168.5.1
p32
sg10
L3232236800L
sg11
V255.255.255.0
p33
sa(dp34
g8
V192.168.5.1
p35
sg10
L3232236544L
sg11
V255.255.255.0
p36
sa(dp37
g8
V192.168.5.2
p38
sg10
L3232236800L
sg11
V255.255.255.0
p39
sa(dp40
g8
V192.168.6.2
p41
sg10
L3232237056L
sg11
V255.255.255.0
p42
sa(dp43
g8
V192.168.7.2
p44
sg10
L3232255744L
sg11
V255.255.255.0
p45
sa(dp46
g8
V192.168.7.2
p47
sg10
L3232239872L
sg11
V255.255.255.0
p48
sa(dp49
g8
V192.168.7.2
p50
sg10
L3232238592L
sg11
V255.255.255.0
p51
sa(dp52
g8
V192.168.7.2
p53
sg10
L3232237312L
sg11
V255.255.255.0
p54
sa(dp55
g8
V192.168.10.2
p56
sg10
L3232238080L
sg11
V255.255.255.0
p57
sa(dp58
g8
V192.168.23.1
p59
sg10
L3232238592L
sg11
V255.255.255.0
p60
sa(dp61
g8
V192.168.39.1
p62
sg10
L3232245504L
sg11
V255.255.255.0
p63
sa(dp64
g8
V192.168.39.1
p65
sg10
L3232237312L
sg11
V255.255.255.0
p66
sa(dp67
g8
V192.168.39.1
p68
sg10
L3232236544L
sg11
V255.255.255.0
p69
sa(dp70
g8
V192.168.39.1
p71
sg10
L3232236288L
sg11
V255.255.255.0
p72
sa(dp73
g8
V192.168.79.2
p74
sg10
L3232255744L
sg11
V255.255.255.0
p75
sa(dp76
g8
V192.168.79.2
p77
sg10
L3232245504L
sg11
V255.255.255.0
p78
sa(dp79
g8
V192.168.79.2
p80
sg10
L3232242944L
sg11
V255.255.255.0
p81
sa(dp82
g8
V192.168.79.2
p83
sg10
L3232238080L
sg11
V255.255.255.0
p84
sa(dp85
g8
V192.168.79.2
p86
sg10
L3232237824L
sg11
V255.255.255.0
p87
sa(dp88
g8
V192.168.2.2
p89
sg10
L3232237056L
sg11
V255.255.255.0
p90
sa(dp91
g8
V192.168.2.2
p92
sg10
L3232242432L
sg11
V255.255.255.0
p93
sa(dp94
g8
V192.168.7.2
p95
sg10
L3232242432L
sg11
V255.255.255.0
p96
sasS'nodes'
p97
(lp98
(dp99
g8
V192.168.2.1
p100
sS'neighbors'
p101
(lp102
(dp103
S'area'
p104
V0.0.0.0
p105
sS'metric'
p106
I64
sS'nRouterId'
p107
V192.168.79.2
p108
sg11
V255.255.255.0
p109
sS'interfaceIP'
p110
V192.168.9.1
p111
sS'id'
p112
I4289
sa(dp113
g104
V0.0.0.0
p114
sg106
I64
sg107
V192.168.2.2
p115
sg11
V255.255.255.0
p116
sg110
V192.168.2.1
p117
sg112
I4291
sasa(dp118
g8
V192.168.2.2
p119
sg101
(lp120
(dp121
g104
V0.0.0.0
p122
sg106
I64
sg107
V192.168.39.1
p123
sg11
V255.255.255.0
p124
sg110
V192.168.3.1
p125
sg112
I4300
sa(dp126
g104
V0.0.0.0
p127
sg106
I64
sg107
V192.168.2.1
p128
sg11
V255.255.255.0
p129
sg110
V192.168.2.2
p130
sg112
I4302
sa(dp131
g104
V0.0.0.0
p132
sg106
I64
sg107
V192.168.6.2
p133
sg11
V255.255.255.0
p134
sg110
V192.168.6.1
p135
sg112
I4344
sa(dp136
g104
V0.0.0.0
p137
sg106
I64
sg107
V192.168.7.2
p138
sg11
V255.255.255.0
p139
sg110
V192.168.27.1
p140
sg112
I4350
sasa(dp141
g8
V192.168.6.2
p142
sg101
(lp143
sa(dp144
g8
V192.168.5.2
p145
sg101
(lp146
sa(dp147
g8
V192.168.5.1
p148
sg101
(lp149
(dp150
g104
V0.0.0.0
p151
sg106
I64
sg107
V192.168.39.1
p152
sg11
V255.255.255.0
p153
sg110
V192.168.4.2
p154
sg112
I4306
sasa(dp155
g8
V192.168.23.1
p156
sg101
(lp157
sa(dp158
g8
V192.168.39.1
p159
sg101
(lp160
(dp161
g104
V0.0.0.0
p162
sg106
I64
sg107
V192.168.5.1
p163
sg11
V255.255.255.0
p164
sg110
V192.168.4.1
p165
sg112
I4329
sa(dp166
g104
V0.0.0.0
p167
sg106
I64
sg107
V192.168.2.2
p168
sg11
V255.255.255.0
p169
sg110
V192.168.3.2
p170
sg112
I4331
sa(dp171
g104
V0.0.0.0
p172
sg106
I64
sg107
V192.168.79.2
p173
sg11
V255.255.255.0
p174
sg110
V192.168.39.1
p175
sg112
I4342
sasa(dp176
g8
V192.168.79.2
p177
sg101
(lp178
(dp179
g104
V0.0.0.0
p180
sg106
I64
sg107
V192.168.39.1
p181
sg11
V255.255.255.0
p182
sg110
V192.168.39.2
p183
sg112
I4335
sa(dp184
g104
V0.0.0.0
p185
sg106
I64
sg107
V192.168.2.2
p186
sg11
V255.255.255.0
p187
sg110
V192.168.29.2
p188
sg112
I4337
sa(dp189
g104
V0.0.0.0
p190
sg106
I64
sg107
V192.168.2.1
p191
sg11
V255.255.255.0
p192
sg110
V192.168.9.2
p193
sg112
I4340
sa(dp194
g104
V0.0.0.0
p195
sg106
I64
sg107
V192.168.10.2
p196
sg11
V255.255.255.0
p197
sg110
V192.168.10.1
p198
sg112
I4343
sasa(dp199
g8
V192.168.7.2
p200
sg101
(lp201
(dp202
g104
V0.0.0.0
p203
sg106
I64
sg107
V192.168.2.1
p204
sg11
V255.255.255.0
p205
sg110
V192.168.17.2
p206
sg112
I4316
sa(dp207
g104
V0.0.0.0
p208
sg106
I64
sg107
V192.168.23.1
p209
sg11
V255.255.255.0
p210
sg110
V192.168.12.1
p211
sg112
I4318
sa(dp212
g104
V0.0.0.0
p213
sg106
I10
sg107
V192.168.39.1
p214
sg11
V255.255.255.0
p215
sg110
V192.168.7.2
p216
sg112
I4320
sa(dp217
g104
V0.0.0.0
p218
sg106
I64
sg107
V192.168.2.2
p219
sg11
V255.255.255.0
p220
sg110
V192.168.27.2
p221
sg112
I4348
sasa(dp222
g8
V192.168.10.2
p223
sg101
(lp224
sasS'InterLink'
p225
(lp226
(dp227
S'linkId'
p228
I3597
sg106
I20
sg107
V192.168.41.1
p229
sg11
V255.255.255.0
p230
sg8
V192.168.12.2
p231
sg110
V192.168.11.2
p232
sS'nAsNumber'
p233
I2
sa(dp234
g228
I3598
sg106
I30
sg107
V192.168.13.2
p235
sg11
V255.255.255.0
p236
sg8
V192.168.12.2
p237
sg110
V192.168.23.1
p238
sg233
I2
sa(dp239
g228
I3599
sg106
I40
sg107
V192.168.13.2
p240
sg11
V255.255.255.0
p241
sg8
V192.168.5.2
p242
sg110
V192.168.13.1
p243
sg233
I2
sa(dp244
g228
I3600
sg106
I50
sg107
V192.168.41.1
p245
sg11
V255.255.255.0
p246
sg8
V192.168.5.2
p247
sg110
V192.168.51.1
p248
sg233
I2
sassS'asNumber'
p249
I1
sS'OuterInfo'
p250
(dp251
S'BGP'
p252
(lp253
(dp254
S'origin'
p255
I0
sS'med'
p256
I0
sg10
V192.168.11.0
p257
sS'aspath'
p258
S''
sS'localPreference'
p259
I100
sS'weight'
p260
I0
sS'nexthop'
p261
V192.168.11.2
p262
sS'length'
p263
I24
sa(dp264
g255
I2
sg256
I0
sg10
V192.168.12.0
p265
sg258
S''
sg259
I100
sg260
I0
sg261
V192.168.11.2
p266
sg263
I24
sa(dp267
g255
I2
sg256
I74
sg10
V192.168.7.0
p268
sg258
S''
sg259
I100
sg260
I0
sg261
V192.168.12.1
p269
sg263
I24
sa(dp270
g255
I2
sg256
I128
sg10
V192.168.17.0
p271
sg258
S''
sg259
I100
sg260
I0
sg261
V192.168.12.1
p272
sg263
I24
sa(dp273
g255
I2
sg256
I128
sg10
V192.168.79.0
p274
sg258
S''
sg259
I100
sg260
I0
sg261
V192.168.12.1
p275
sg263
I24
sa(dp276
g255
I2
sg256
I128
sg10
V192.168.27.0
p277
sg258
S''
sg259
I100
sg260
I0
sg261
V192.168.12.1
p278
sg263
I24
sa(dp279
g255
I2
sg256
I129
sg10
V192.168.1.0
p280
sg258
S''
sg259
I100
sg260
I0
sg261
V192.168.12.1
p281
sg263
I24
sa(dp282
g255
I2
sg256
I129
sg10
V192.168.99.99
p283
sg258
S''
sg259
I100
sg260
I0
sg261
V192.168.12.1
p284
sg263
I32
sa(dp285
g255
I2
sg256
I138
sg10
V192.168.3.0
p286
sg258
S''
sg259
I100
sg260
I0
sg261
V192.168.12.1
p287
sg263
I24
sa(dp288
g255
I2
sg256
I138
sg10
V192.168.39.0
p289
sg258
S''
sg259
I100
sg260
I0
sg261
V192.168.12.1
p290
sg263
I24
sa(dp291
g255
I2
sg256
I138
sg10
V192.168.4.0
p292
sg258
S''
sg259
I100
sg260
I0
sg261
V192.168.12.1
p293
sg263
I24
sa(dp294
g255
I2
sg256
I138
sg10
V192.168.13.0
p295
sg258
S''
sg259
I100
sg260
I0
sg261
V192.168.12.1
p296
sg263
I24
sa(dp297
g255
I2
sg256
I192
sg10
V192.168.2.0
p298
sg258
S''
sg259
I100
sg260
I0
sg261
V192.168.12.1
p299
sg263
I24
sa(dp300
g255
I2
sg256
I192
sg10
V192.168.6.0
p301
sg258
S''
sg259
I100
sg260
I0
sg261
V192.168.12.1
p302
sg263
I24
sa(dp303
g255
I2
sg256
I192
sg10
V192.168.9.0
p304
sg258
S''
sg259
I100
sg260
I0
sg261
V192.168.12.1
p305
sg263
I24
sa(dp306
g255
I2
sg256
I192
sg10
V192.168.29.0
p307
sg258
S''
sg259
I100
sg260
I0
sg261
V192.168.12.1
p308
sg263
I24
sa(dp309
g255
I2
sg256
I202
sg10
V192.168.5.0
p310
sg258
S''
sg259
I100
sg260
I0
sg261
V192.168.12.1
p311
sg263
I24
sa(dp312
g255
I2
sg256
I0
sg10
V192.168.31.0
p313
sg258
S''
sg259
I100
sg260
I0
sg261
V192.168.11.1
p314
sg263
I24
sa(dp315
g255
I2
sg256
I2
sg10
V192.168.41.0
p316
sg258
S''
sg259
I100
sg260
I0
sg261
V192.168.23.2
p317
sg263
I24
sa(dp318
g255
I2
sg256
I2
sg10
V10.21.3.0
p319
sg258
S''
sg259
I100
sg260
I0
sg261
V192.168.11.1
p320
sg263
I24
sa(dp321
g255
I2
sg256
I65
sg10
V192.168.14.0
p322
sg258
S''
sg259
I100
sg260
I0
sg261
V192.168.11.1
p323
sg263
I24
sa(dp324
g255
I0
sg256
I0
sg10
V192.168.23.0
p325
sg258
S''
sg259
I100
sg260
I0
sg261
V192.168.23.2
p326
sg263
I24
sa(dp327
g255
I2
sg256
I0
sg10
V192.168.14.0
p328
sg258
S''
sg259
I100
sg260
I0
sg261
V192.168.23.2
p329
sg263
I24
sa(dp330
g255
I2
sg256
I129
sg10
V192.168.1.0
p331
sg258
S''
sg259
I100
sg260
I0
sg261
V192.168.12.1
p332
sg263
I24
sa(dp333
g255
I2
sg256
I3
sg10
V10.0.0.0
p334
sg258
S''
sg259
I100
sg260
I0
sg261
V192.168.23.2
p335
sg263
I8
sa(dp336
g255
I2
sg256
I2
sg10
V10.0.0.0
p337
sg258
S''
sg259
I100
sg260
I0
sg261
V192.168.11.1
p338
sg263
I8
sa(dp339
g255
I2
sg256
I129
sg10
V192.168.1.0
p340
sg258
S''
sg259
I100
sg260
I0
sg261
V192.168.12.1
p341
sg263
I24
sa(dp342
g255
I2
sg256
I129
sg10
V192.168.1.0
p343
sg258
S''
sg259
I100
sg260
I0
sg261
V192.168.12.1
p344
sg263
I24
sa(dp345
g255
I2
sg256
I192
sg10
V192.168.10.0
p346
sg258
S''
sg259
I100
sg260
I0
sg261
V192.168.12.1
p347
sg263
I24
sa(dp348
g255
I2
sg256
I129
sg10
V192.168.1.0
p349
sg258
S''
sg259
I100
sg260
I0
sg261
V192.168.12.1
p350
sg263
I24
sa(dp351
g255
I2
sg256
I3
sg10
V10.0.0.0
p352
sg258
S''
sg259
I100
sg260
I0
sg261
V192.168.23.2
p353
sg263
I8
sa(dp354
g255
I2
sg256
I65
sg10
V10.0.0.0
p355
sg258
S''
sg259
I100
sg260
I0
sg261
V192.168.23.2
p356
sg263
I8
sa(dp357
g255
I2
sg256
I0
sg10
V192.168.31.0
p358
sg258
S''
sg259
I100
sg260
I0
sg261
V192.168.23.2
p359
sg263
I24
sa(dp360
g255
I2
sg256
I65
sg10
V192.168.41.0
p361
sg258
S''
sg259
I100
sg260
I0
sg261
V192.168.23.2
p362
sg263
I24
sa(dp363
g255
I0
sg256
I0
sg10
V192.168.51.0
p364
sg258
S''
sg259
I100
sg260
I0
sg261
V192.168.11.1
p365
sg263
I24
sa(dp366
g255
I0
sg256
I0
sg10
V192.168.13.0
p367
sg258
S''
sg259
I200
sg260
I0
sg261
V192.168.13.1
p368
sg263
I24
sa(dp369
g255
I2
sg256
I0
sg10
V192.168.5.0
p370
sg258
S''
sg259
I200
sg260
I0
sg261
V192.168.13.1
p371
sg263
I24
sa(dp372
g255
I2
sg256
I128
sg10
V192.168.4.0
p373
sg258
S''
sg259
I200
sg260
I0
sg261
V192.168.5.1
p374
sg263
I24
sa(dp375
g255
I2
sg256
I192
sg10
V192.168.3.0
p376
sg258
S''
sg259
I200
sg260
I0
sg261
V192.168.5.1
p377
sg263
I24
sa(dp378
g255
I2
sg256
I192
sg10
V192.168.7.0
p379
sg258
S''
sg259
I200
sg260
I0
sg261
V192.168.5.1
p380
sg263
I24
sa(dp381
g255
I2
sg256
I192
sg10
V192.168.39.0
p382
sg258
S''
sg259
I200
sg260
I0
sg261
V192.168.5.1
p383
sg263
I24
sa(dp384
g255
I2
sg256
I256
sg10
V192.168.10.0
p385
sg258
S''
sg259
I200
sg260
I0
sg261
V192.168.5.1
p386
sg263
I24
sa(dp387
g255
I2
sg256
I256
sg10
V192.168.2.0
p388
sg258
S''
sg259
I200
sg260
I0
sg261
V192.168.5.1
p389
sg263
I24
sa(dp390
g255
I2
sg256
I256
sg10
V192.168.17.0
p391
sg258
S''
sg259
I200
sg260
I0
sg261
V192.168.5.1
p392
sg263
I24
sa(dp393
g255
I2
sg256
I256
sg10
V192.168.6.0
p394
sg258
S''
sg259
I200
sg260
I0
sg261
V192.168.5.1
p395
sg263
I24
sa(dp396
g255
I2
sg256
I256
sg10
V192.168.79.0
p397
sg258
S''
sg259
I200
sg260
I0
sg261
V192.168.5.1
p398
sg263
I24
sa(dp399
g255
I2
sg256
I256
sg10
V192.168.27.0
p400
sg258
S''
sg259
I200
sg260
I0
sg261
V192.168.5.1
p401
sg263
I24
sa(dp402
g255
I2
sg256
I256
sg10
V192.168.9.0
p403
sg258
S''
sg259
I200
sg260
I0
sg261
V192.168.5.1
p404
sg263
I24
sa(dp405
g255
I2
sg256
I256
sg10
V192.168.29.0
p406
sg258
S''
sg259
I200
sg260
I0
sg261
V192.168.5.1
p407
sg263
I24
sa(dp408
g255
I2
sg256
I256
sg10
V192.168.12.0
p409
sg258
S''
sg259
I200
sg260
I0
sg261
V192.168.5.1
p410
sg263
I24
sa(dp411
g255
I2
sg256
I257
sg10
V192.168.99.99
p412
sg258
S''
sg259
I200
sg260
I0
sg261
V192.168.5.1
p413
sg263
I32
sa(dp414
g255
I2
sg256
I257
sg10
V192.168.1.0
p415
sg258
S''
sg259
I100
sg260
I0
sg261
V192.168.5.1
p416
sg263
I24
sa(dp417
g255
I2
sg256
I0
sg10
V192.168.41.0
p418
sg258
S''
sg259
I200
sg260
I0
sg261
V192.168.51.2
p419
sg263
I24
sa(dp420
g255
I2
sg256
I0
sg10
V192.168.31.0
p421
sg258
S''
sg259
I200
sg260
I0
sg261
V192.168.13.2
p422
sg263
I24
sa(dp423
g255
I2
sg256
I0
sg10
V192.168.14.0
p424
sg258
S''
sg259
I200
sg260
I0
sg261
V192.168.13.2
p425
sg263
I24
sa(dp426
g255
I2
sg256
I2
sg10
V10.0.0.0
p427
sg258
S''
sg259
I100
sg260
I0
sg261
V192.168.51.2
p428
sg263
I8
sa(dp429
g255
I0
sg256
I0
sg10
V192.168.51.0
p430
sg258
S''
sg259
I200
sg260
I0
sg261
V192.168.51.2
p431
sg263
I24
sa(dp432
g255
I0
sg256
I0
sg10
V192.168.23.0
p433
sg258
S''
sg259
I200
sg260
I0
sg261
V192.168.13.2
p434
sg263
I24
sa(dp435
g255
I2
sg256
I129
sg10
V192.168.1.0
p436
sg258
S''
sg259
I100
sg260
I0
sg261
V192.168.12.1
p437
sg263
I24
sa(dp438
g255
I2
sg256
I257
sg10
V192.168.1.0
p439
sg258
S''
sg259
I100
sg260
I0
sg261
V192.168.5.1
p440
sg263
I24
sa(dp441
g255
I2
sg256
I129
sg10
V192.168.1.0
p442
sg258
S''
sg259
I100
sg260
I0
sg261
V192.168.12.1
p443
sg263
I24
sa(dp444
g255
I2
sg256
I3
sg10
V10.0.0.0
p445
sg258
S''
sg259
I100
sg260
I0
sg261
V192.168.13.2
p446
sg263
I8
sa(dp447
g255
I2
sg256
I3
sg10
V10.21.3.0
p448
sg258
S''
sg259
I100
sg260
I0
sg261
V192.168.13.2
p449
sg263
I24
sa(dp450
g255
I2
sg256
I3
sg10
V10.21.3.0
p451
sg258
S''
sg259
I100
sg260
I0
sg261
V192.168.23.2
p452
sg263
I24
sa(dp453
g255
I2
sg256
I2
sg10
V10.21.3.0
p454
sg258
S''
sg259
I100
sg260
I0
sg261
V192.168.51.2
p455
sg263
I24
sa(dp456
g255
I2
sg256
I2
sg10
V10.21.3.0
p457
sg258
S''
sg259
I100
sg260
I0
sg261
V192.168.11.1
p458
sg263
I24
sa(dp459
g255
I2
sg256
I2
sg10
V10.21.3.0
p460
sg258
S''
sg259
I100
sg260
I0
sg261
V192.168.11.1
p461
sg263
I24
sa(dp462
g255
I2
sg256
I2
sg10
V10.21.3.0
p463
sg258
S''
sg259
I200
sg260
I0
sg261
V192.168.51.2
p464
sg263
I24
sa(dp465
g255
I2
sg256
I129
sg10
V192.168.1.0
p466
sg258
S''
sg259
I100
sg260
I0
sg261
V192.168.12.1
p467
sg263
I24
sa(dp468
g255
I2
sg256
I257
sg10
V192.168.1.0
p469
sg258
S''
sg259
I100
sg260
I0
sg261
V192.168.5.1
p470
sg263
I24
sa(dp471
g255
I2
sg256
I257
sg10
V192.168.1.0
p472
sg258
S''
sg259
I200
sg260
I0
sg261
V192.168.5.1
p473
sg263
I24
sa(dp474
g255
I2
sg256
I129
sg10
V192.168.1.0
p475
sg258
S''
sg259
I100
sg260
I0
sg261
V192.168.12.1
p476
sg263
I24
sa(dp477
g255
I2
sg256
I3
sg10
V10.21.3.0
p478
sg258
S''
sg259
I100
sg260
I0
sg261
V192.168.23.2
p479
sg263
I24
sa(dp480
g255
I2
sg256
I3
sg10
V10.21.3.0
p481
sg258
S''
sg259
I100
sg260
I0
sg261
V192.168.13.2
p482
sg263
I24
sa(dp483
g255
I2
sg256
I2
sg10
V10.21.3.0
p484
sg258
S''
sg259
I100
sg260
I0
sg261
V192.168.11.1
p485
sg263
I24
sa(dp486
g255
I2
sg256
I2
sg10
V10.21.3.0
p487
sg258
S''
sg259
I200
sg260
I0
sg261
V192.168.51.2
p488
sg263
I24
sa(dp489
g255
I2
sg256
I3
sg10
V10.21.3.0
p490
sg258
S''
sg259
I200
sg260
I0
sg261
V192.168.13.2
p491
sg263
I24
sa(dp492
g255
I2
sg256
I129
sg10
V192.168.1.0
p493
sg258
S''
sg259
I100
sg260
I0
sg261
V192.168.12.1
p494
sg263
I24
sa(dp495
g255
I2
sg256
I3
sg10
V10.21.3.0
p496
sg258
S''
sg259
I100
sg260
I0
sg261
V192.168.23.2
p497
sg263
I24
sa(dp498
g255
I2
sg256
I2
sg10
V10.21.3.0
p499
sg258
S''
sg259
I100
sg260
I0
sg261
V192.168.11.1
p500
sg263
I24
sa(dp501
g255
I2
sg256
I2
sg10
V10.21.3.0
p502
sg258
S''
sg259
I200
sg260
I0
sg261
V192.168.51.2
p503
sg263
I24
sa(dp504
g255
I2
sg256
I3
sg10
V10.21.3.0
p505
sg258
S''
sg259
I200
sg260
I0
sg261
V192.168.13.2
p506
sg263
I24
sa(dp507
g255
I2
sg256
I129
sg10
V192.168.1.0
p508
sg258
S''
sg259
I100
sg260
I0
sg261
V192.168.12.1
p509
sg263
I24
sa(dp510
g255
I2
sg256
I3
sg10
V10.21.3.0
p511
sg258
S''
sg259
I100
sg260
I0
sg261
V192.168.23.2
p512
sg263
I24
sa(dp513
g255
I2
sg256
I129
sg10
V192.168.1.0
p514
sg258
S''
sg259
I100
sg260
I0
sg261
V192.168.12.1
p515
sg263
I24
sa(dp516
g255
I2
sg256
I257
sg10
V192.168.1.0
p517
sg258
S''
sg259
I200
sg260
I0
sg261
V192.168.5.1
p518
sg263
I24
sa(dp519
g255
I2
sg256
I257
sg10
V192.168.1.0
p520
sg258
S''
sg259
I200
sg260
I0
sg261
V192.168.5.1
p521
sg263
I24
sa(dp522
g255
I2
sg256
I129
sg10
V192.168.1.0
p523
sg258
S''
sg259
I100
sg260
I0
sg261
V192.168.12.1
p524
sg263
I24
sa(dp525
g255
I2
sg256
I2
sg10
V10.21.3.0
p526
sg258
S''
sg259
I100
sg260
I0
sg261
V192.168.11.1
p527
sg263
I24
sa(dp528
g255
I2
sg256
I2
sg10
V10.21.3.0
p529
sg258
S''
sg259
I200
sg260
I0
sg261
V192.168.51.2
p530
sg263
I24
sa(dp531
g255
I2
sg256
I3
sg10
V10.21.3.0
p532
sg258
S''
sg259
I200
sg260
I0
sg261
V192.168.13.2
p533
sg263
I24
sa(dp534
g255
I2
sg256
I129
sg10
V192.168.1.0
p535
sg258
S''
sg259
I100
sg260
I0
sg261
V192.168.12.1
p536
sg263
I24
sa(dp537
g255
I2
sg256
I257
sg10
V192.168.1.0
p538
sg258
S''
sg259
I200
sg260
I0
sg261
V192.168.5.1
p539
sg263
I24
sa(dp540
g255
I2
sg256
I129
sg10
V192.168.1.0
p541
sg258
S''
sg259
I100
sg260
I0
sg261
V192.168.12.1
p542
sg263
I24
sa(dp543
g255
I2
sg256
I257
sg10
V192.168.1.0
p544
sg258
S''
sg259
I200
sg260
I0
sg261
V192.168.5.1
p545
sg263
I24
sa(dp546
g255
I2
sg256
I257
sg10
V192.168.1.0
p547
sg258
S''
sg259
I200
sg260
I0
sg261
V192.168.5.1
p548
sg263
I24
sa(dp549
g255
I2
sg256
I3
sg10
V10.21.3.0
p550
sg258
S''
sg259
I100
sg260
I0
sg261
V192.168.23.2
p551
sg263
I24
sa(dp552
g255
I2
sg256
I129
sg10
V192.168.1.0
p553
sg258
S''
sg259
I100
sg260
I0
sg261
V192.168.12.1
p554
sg263
I24
sa(dp555
g255
I2
sg256
I257
sg10
V192.168.1.0
p556
sg258
S''
sg259
I200
sg260
I0
sg261
V192.168.5.1
p557
sg263
I24
sa(dp558
g255
I2
sg256
I257
sg10
V192.168.1.0
p559
sg258
S''
sg259
I200
sg260
I0
sg261
V192.168.5.1
p560
sg263
I24
sa(dp561
g255
I2
sg256
I129
sg10
V192.168.1.0
p562
sg258
S''
sg259
I100
sg260
I0
sg261
V192.168.12.1
p563
sg263
I24
sa(dp564
g255
I2
sg256
I129
sg10
V192.168.1.0
p565
sg258
S''
sg259
I100
sg260
I0
sg261
V192.168.12.1
p566
sg263
I24
sa(dp567
g255
I2
sg256
I257
sg10
V192.168.1.0
p568
sg258
S''
sg259
I200
sg260
I0
sg261
V192.168.5.1
p569
sg263
I24
sa(dp570
g255
I2
sg256
I129
sg10
V192.168.1.0
p571
sg258
S''
sg259
I100
sg260
I0
sg261
V192.168.12.1
p572
sg263
I24
sa(dp573
g255
I2
sg256
I257
sg10
V192.168.1.0
p574
sg258
S''
sg259
I200
sg260
I0
sg261
V192.168.5.1
p575
sg263
I24
sa(dp576
g255
I2
sg256
I129
sg10
V192.168.1.0
p577
sg258
S''
sg259
I100
sg260
I0
sg261
V192.168.12.1
p578
sg263
I24
sa(dp579
g255
I0
sg256
I0
sg10
V192.168.23.0
p580
sg258
S''
sg259
I100
sg260
I0
sg261
V192.168.11.2
p581
sg263
I24
sa(dp582
g255
I0
sg256
I0
sg10
V192.168.51.0
p583
sg258
S''
sg259
I200
sg260
I0
sg261
V192.168.13.1
p584
sg263
I24
sa(dp585
g255
I0
sg256
I0
sg10
V192.168.11.0
p586
sg258
S''
sg259
I200
sg260
I0
sg261
V192.168.51.2
p587
sg263
I24
sa(dp588
g255
I0
sg256
I0
sg10
V192.168.13.0
p589
sg258
S''
sg259
I100
sg260
I0
sg261
V192.168.23.2
p590
sg263
I24
sa(dp591
g255
I2
sg256
I129
sg10
V192.168.1.0
p592
sg258
S''
sg259
I100
sg260
I0
sg261
V192.168.12.1
p593
sg263
I24
sa(dp594
g255
I2
sg256
I257
sg10
V192.168.1.0
p595
sg258
S''
sg259
I200
sg260
I0
sg261
V192.168.5.1
p596
sg263
I24
sa(dp597
g255
I2
sg256
I257
sg10
V192.168.1.0
p598
sg258
S''
sg259
I200
sg260
I0
sg261
V192.168.5.1
p599
sg263
I24
sa(dp600
g255
I2
sg256
I129
sg10
V192.168.1.0
p601
sg258
S''
sg259
I100
sg260
I0
sg261
V192.168.12.1
p602
sg263
I24
sa(dp603
g255
I2
sg256
I257
sg10
V192.168.1.0
p604
sg258
S''
sg259
I200
sg260
I0
sg261
V192.168.5.1
p605
sg263
I24
sa(dp606
g255
I2
sg256
I129
sg10
V192.168.1.0
p607
sg258
S''
sg259
I100
sg260
I0
sg261
V192.168.12.1
p608
sg263
I24
sa(dp609
g255
I2
sg256
I257
sg10
V192.168.1.0
p610
sg258
S''
sg259
I200
sg260
I0
sg261
V192.168.5.1
p611
sg263
I24
sa(dp612
g255
I2
sg256
I129
sg10
V192.168.1.0
p613
sg258
S''
sg259
I100
sg260
I0
sg261
V192.168.12.1
p614
sg263
I24
sa(dp615
g255
I2
sg256
I257
sg10
V192.168.1.0
p616
sg258
S''
sg259
I200
sg260
I0
sg261
V192.168.5.1
p617
sg263
I24
sa(dp618
g255
I0
sg256
I0
sg10
V192.168.23.0
p619
sg258
S''
sg259
I100
sg260
I0
sg261
V192.168.11.2
p620
sg263
I24
sa(dp621
g255
I0
sg256
I0
sg10
V192.168.11.0
p622
sg258
S''
sg259
I100
sg260
I0
sg261
V192.168.11.2
p623
sg263
I24
sa(dp624
g255
I2
sg256
I0
sg10
V192.168.12.0
p625
sg258
S''
sg259
I100
sg260
I0
sg261
V192.168.11.2
p626
sg263
I24
sa(dp627
g255
I2
sg256
I74
sg10
V192.168.7.0
p628
sg258
S''
sg259
I100
sg260
I0
sg261
V192.168.12.1
p629
sg263
I24
sa(dp630
g255
I2
sg256
I128
sg10
V192.168.79.0
p631
sg258
S''
sg259
I100
sg260
I0
sg261
V192.168.12.1
p632
sg263
I24
sa(dp633
g255
I2
sg256
I128
sg10
V192.168.27.0
p634
sg258
S''
sg259
I100
sg260
I0
sg261
V192.168.12.1
p635
sg263
I24
sa(dp636
g255
I2
sg256
I128
sg10
V192.168.17.0
p637
sg258
S''
sg259
I100
sg260
I0
sg261
V192.168.12.1
p638
sg263
I24
sa(dp639
g255
I2
sg256
I129
sg10
V192.168.1.0
p640
sg258
S''
sg259
I100
sg260
I0
sg261
V192.168.12.1
p641
sg263
I24
sa(dp642
g255
I2
sg256
I129
sg10
V192.168.99.99
p643
sg258
S''
sg259
I100
sg260
I0
sg261
V192.168.12.1
p644
sg263
I32
sa(dp645
g255
I2
sg256
I138
sg10
V192.168.39.0
p646
sg258
S''
sg259
I100
sg260
I0
sg261
V192.168.12.1
p647
sg263
I24
sa(dp648
g255
I2
sg256
I138
sg10
V192.168.4.0
p649
sg258
S''
sg259
I100
sg260
I0
sg261
V192.168.12.1
p650
sg263
I24
sa(dp651
g255
I2
sg256
I138
sg10
V192.168.3.0
p652
sg258
S''
sg259
I100
sg260
I0
sg261
V192.168.12.1
p653
sg263
I24
sa(dp654
g255
I2
sg256
I192
sg10
V192.168.29.0
p655
sg258
S''
sg259
I100
sg260
I0
sg261
V192.168.12.1
p656
sg263
I24
sa(dp657
g255
I2
sg256
I192
sg10
V192.168.10.0
p658
sg258
S''
sg259
I100
sg260
I0
sg261
V192.168.12.1
p659
sg263
I24
sa(dp660
g255
I2
sg256
I192
sg10
V192.168.9.0
p661
sg258
S''
sg259
I100
sg260
I0
sg261
V192.168.12.1
p662
sg263
I24
sa(dp663
g255
I2
sg256
I192
sg10
V192.168.6.0
p664
sg258
S''
sg259
I100
sg260
I0
sg261
V192.168.12.1
p665
sg263
I24
sa(dp666
g255
I2
sg256
I192
sg10
V192.168.2.0
p667
sg258
S''
sg259
I100
sg260
I0
sg261
V192.168.12.1
p668
sg263
I24
sa(dp669
g255
I2
sg256
I202
sg10
V192.168.5.0
p670
sg258
S''
sg259
I100
sg260
I0
sg261
V192.168.12.1
p671
sg263
I24
sa(dp672
g255
I2
sg256
I0
sg10
V192.168.14.0
p673
sg258
S''
sg259
I100
sg260
I0
sg261
V192.168.23.2
p674
sg263
I24
sa(dp675
g255
I2
sg256
I0
sg10
V192.168.31.0
p676
sg258
S''
sg259
I100
sg260
I0
sg261
V192.168.11.1
p677
sg263
I24
sa(dp678
g255
I2
sg256
I0
sg10
V192.168.41.0
p679
sg258
S''
sg259
I100
sg260
I0
sg261
V192.168.11.1
p680
sg263
I24
sa(dp681
g255
I2
sg256
I2
sg10
V10.21.3.0
p682
sg258
S''
sg259
I100
sg260
I0
sg261
V192.168.11.1
p683
sg263
I24
sa(dp684
g255
I0
sg256
I0
sg10
V192.168.13.0
p685
sg258
S''
sg259
I100
sg260
I0
sg261
V192.168.23.2
p686
sg263
I24
sa(dp687
g255
I0
sg256
I0
sg10
V192.168.51.0
p688
sg258
S''
sg259
I100
sg260
I0
sg261
V192.168.11.1
p689
sg263
I24
sa(dp690
g255
I0
sg256
I0
sg10
V192.168.51.0
p691
sg258
S''
sg259
I200
sg260
I0
sg261
V192.168.13.1
p692
sg263
I24
sa(dp693
g255
I0
sg256
I0
sg10
V192.168.13.0
p694
sg258
S''
sg259
I200
sg260
I0
sg261
V192.168.13.1
p695
sg263
I24
sa(dp696
g255
I2
sg256
I0
sg10
V192.168.5.0
p697
sg258
S''
sg259
I200
sg260
I0
sg261
V192.168.13.1
p698
sg263
I24
sa(dp699
g255
I2
sg256
I128
sg10
V192.168.4.0
p700
sg258
S''
sg259
I200
sg260
I0
sg261
V192.168.5.1
p701
sg263
I24
sa(dp702
g255
I2
sg256
I192
sg10
V192.168.39.0
p703
sg258
S''
sg259
I200
sg260
I0
sg261
V192.168.5.1
p704
sg263
I24
sa(dp705
g255
I2
sg256
I192
sg10
V192.168.7.0
p706
sg258
S''
sg259
I200
sg260
I0
sg261
V192.168.5.1
p707
sg263
I24
sa(dp708
g255
I2
sg256
I192
sg10
V192.168.3.0
p709
sg258
S''
sg259
I200
sg260
I0
sg261
V192.168.5.1
p710
sg263
I24
sa(dp711
g255
I2
sg256
I256
sg10
V192.168.79.0
p712
sg258
S''
sg259
I200
sg260
I0
sg261
V192.168.5.1
p713
sg263
I24
sa(dp714
g255
I2
sg256
I256
sg10
V192.168.29.0
p715
sg258
S''
sg259
I200
sg260
I0
sg261
V192.168.5.1
p716
sg263
I24
sa(dp717
g255
I2
sg256
I256
sg10
V192.168.27.0
p718
sg258
S''
sg259
I200
sg260
I0
sg261
V192.168.5.1
p719
sg263
I24
sa(dp720
g255
I2
sg256
I256
sg10
V192.168.17.0
p721
sg258
S''
sg259
I200
sg260
I0
sg261
V192.168.5.1
p722
sg263
I24
sa(dp723
g255
I2
sg256
I256
sg10
V192.168.12.0
p724
sg258
S''
sg259
I200
sg260
I0
sg261
V192.168.5.1
p725
sg263
I24
sa(dp726
g255
I2
sg256
I256
sg10
V192.168.10.0
p727
sg258
S''
sg259
I200
sg260
I0
sg261
V192.168.5.1
p728
sg263
I24
sa(dp729
g255
I2
sg256
I256
sg10
V192.168.9.0
p730
sg258
S''
sg259
I200
sg260
I0
sg261
V192.168.5.1
p731
sg263
I24
sa(dp732
g255
I2
sg256
I256
sg10
V192.168.6.0
p733
sg258
S''
sg259
I200
sg260
I0
sg261
V192.168.5.1
p734
sg263
I24
sa(dp735
g255
I2
sg256
I256
sg10
V192.168.2.0
p736
sg258
S''
sg259
I200
sg260
I0
sg261
V192.168.5.1
p737
sg263
I24
sa(dp738
g255
I2
sg256
I257
sg10
V192.168.1.0
p739
sg258
S''
sg259
I200
sg260
I0
sg261
V192.168.5.1
p740
sg263
I24
sa(dp741
g255
I2
sg256
I257
sg10
V192.168.99.99
p742
sg258
S''
sg259
I200
sg260
I0
sg261
V192.168.5.1
p743
sg263
I32
sa(dp744
g255
I2
sg256
I0
sg10
V192.168.14.0
p745
sg258
S''
sg259
I200
sg260
I0
sg261
V192.168.13.2
p746
sg263
I24
sa(dp747
g255
I2
sg256
I0
sg10
V192.168.31.0
p748
sg258
S''
sg259
I200
sg260
I0
sg261
V192.168.13.2
p749
sg263
I24
sa(dp750
g255
I2
sg256
I3
sg10
V10.21.3.0
p751
sg258
S''
sg259
I200
sg260
I0
sg261
V192.168.13.2
p752
sg263
I24
sa(dp753
g255
I0
sg256
I0
sg10
V192.168.23.0
p754
sg258
S''
sg259
I200
sg260
I0
sg261
V192.168.13.2
p755
sg263
I24
sa(dp756
g255
I0
sg256
I0
sg10
V192.168.11.0
p757
sg258
S''
sg259
I200
sg260
I0
sg261
V192.168.51.2
p758
sg263
I24
sa(dp759
g255
I2
sg256
I2
sg10
V192.168.41.0
p760
sg258
S''
sg259
I200
sg260
I0
sg261
V192.168.13.2
p761
sg263
I24
sa(dp762
g255
I0
sg256
I0
sg10
V192.168.23.0
p763
sg258
S''
sg259
I100
sg260
I0
sg261
V192.168.11.2
p764
sg263
I24
sa(dp765
g255
I0
sg256
I0
sg10
V192.168.11.0
p766
sg258
S''
sg259
I100
sg260
I0
sg261
V192.168.11.2
p767
sg263
I24
sa(dp768
g255
I2
sg256
I0
sg10
V192.168.12.0
p769
sg258
S''
sg259
I100
sg260
I0
sg261
V192.168.11.2
p770
sg263
I24
sa(dp771
g255
I2
sg256
I74
sg10
V192.168.7.0
p772
sg258
S''
sg259
I100
sg260
I0
sg261
V192.168.12.1
p773
sg263
I24
sa(dp774
g255
I2
sg256
I128
sg10
V192.168.79.0
p775
sg258
S''
sg259
I100
sg260
I0
sg261
V192.168.12.1
p776
sg263
I24
sa(dp777
g255
I2
sg256
I128
sg10
V192.168.27.0
p778
sg258
S''
sg259
I100
sg260
I0
sg261
V192.168.12.1
p779
sg263
I24
sa(dp780
g255
I2
sg256
I128
sg10
V192.168.17.0
p781
sg258
S''
sg259
I100
sg260
I0
sg261
V192.168.12.1
p782
sg263
I24
sa(dp783
g255
I2
sg256
I129
sg10
V192.168.1.0
p784
sg258
S''
sg259
I100
sg260
I0
sg261
V192.168.12.1
p785
sg263
I24
sa(dp786
g255
I2
sg256
I129
sg10
V192.168.99.99
p787
sg258
S''
sg259
I100
sg260
I0
sg261
V192.168.12.1
p788
sg263
I32
sa(dp789
g255
I2
sg256
I138
sg10
V192.168.39.0
p790
sg258
S''
sg259
I100
sg260
I0
sg261
V192.168.12.1
p791
sg263
I24
sa(dp792
g255
I2
sg256
I138
sg10
V192.168.4.0
p793
sg258
S''
sg259
I100
sg260
I0
sg261
V192.168.12.1
p794
sg263
I24
sa(dp795
g255
I2
sg256
I138
sg10
V192.168.3.0
p796
sg258
S''
sg259
I100
sg260
I0
sg261
V192.168.12.1
p797
sg263
I24
sa(dp798
g255
I2
sg256
I192
sg10
V192.168.29.0
p799
sg258
S''
sg259
I100
sg260
I0
sg261
V192.168.12.1
p800
sg263
I24
sa(dp801
g255
I2
sg256
I192
sg10
V192.168.10.0
p802
sg258
S''
sg259
I100
sg260
I0
sg261
V192.168.12.1
p803
sg263
I24
sa(dp804
g255
I2
sg256
I192
sg10
V192.168.9.0
p805
sg258
S''
sg259
I100
sg260
I0
sg261
V192.168.12.1
p806
sg263
I24
sa(dp807
g255
I2
sg256
I192
sg10
V192.168.6.0
p808
sg258
S''
sg259
I100
sg260
I0
sg261
V192.168.12.1
p809
sg263
I24
sa(dp810
g255
I2
sg256
I192
sg10
V192.168.2.0
p811
sg258
S''
sg259
I100
sg260
I0
sg261
V192.168.12.1
p812
sg263
I24
sa(dp813
g255
I2
sg256
I202
sg10
V192.168.5.0
p814
sg258
S''
sg259
I100
sg260
I0
sg261
V192.168.12.1
p815
sg263
I24
sa(dp816
g255
I2
sg256
I0
sg10
V192.168.14.0
p817
sg258
S''
sg259
I100
sg260
I0
sg261
V192.168.23.2
p818
sg263
I24
sa(dp819
g255
I2
sg256
I0
sg10
V192.168.31.0
p820
sg258
S''
sg259
I100
sg260
I0
sg261
V192.168.11.1
p821
sg263
I24
sa(dp822
g255
I2
sg256
I0
sg10
V192.168.41.0
p823
sg258
S''
sg259
I100
sg260
I0
sg261
V192.168.11.1
p824
sg263
I24
sa(dp825
g255
I2
sg256
I2
sg10
V10.21.3.0
p826
sg258
S''
sg259
I100
sg260
I0
sg261
V192.168.11.1
p827
sg263
I24
sa(dp828
g255
I0
sg256
I0
sg10
V192.168.13.0
p829
sg258
S''
sg259
I100
sg260
I0
sg261
V192.168.23.2
p830
sg263
I24
sa(dp831
g255
I0
sg256
I0
sg10
V192.168.51.0
p832
sg258
S''
sg259
I100
sg260
I0
sg261
V192.168.11.1
p833
sg263
I24
sa(dp834
g255
I0
sg256
I0
sg10
V192.168.51.0
p835
sg258
S''
sg259
I200
sg260
I0
sg261
V192.168.13.1
p836
sg263
I24
sa(dp837
g255
I0
sg256
I0
sg10
V192.168.13.0
p838
sg258
S''
sg259
I200
sg260
I0
sg261
V192.168.13.1
p839
sg263
I24
sa(dp840
g255
I2
sg256
I0
sg10
V192.168.5.0
p841
sg258
S''
sg259
I200
sg260
I0
sg261
V192.168.13.1
p842
sg263
I24
sa(dp843
g255
I2
sg256
I128
sg10
V192.168.4.0
p844
sg258
S''
sg259
I200
sg260
I0
sg261
V192.168.5.1
p845
sg263
I24
sa(dp846
g255
I2
sg256
I192
sg10
V192.168.39.0
p847
sg258
S''
sg259
I200
sg260
I0
sg261
V192.168.5.1
p848
sg263
I24
sa(dp849
g255
I2
sg256
I192
sg10
V192.168.7.0
p850
sg258
S''
sg259
I200
sg260
I0
sg261
V192.168.5.1
p851
sg263
I24
sa(dp852
g255
I2
sg256
I192
sg10
V192.168.3.0
p853
sg258
S''
sg259
I200
sg260
I0
sg261
V192.168.5.1
p854
sg263
I24
sa(dp855
g255
I2
sg256
I256
sg10
V192.168.79.0
p856
sg258
S''
sg259
I200
sg260
I0
sg261
V192.168.5.1
p857
sg263
I24
sa(dp858
g255
I2
sg256
I256
sg10
V192.168.29.0
p859
sg258
S''
sg259
I200
sg260
I0
sg261
V192.168.5.1
p860
sg263
I24
sa(dp861
g255
I2
sg256
I256
sg10
V192.168.27.0
p862
sg258
S''
sg259
I200
sg260
I0
sg261
V192.168.5.1
p863
sg263
I24
sa(dp864
g255
I2
sg256
I256
sg10
V192.168.17.0
p865
sg258
S''
sg259
I200
sg260
I0
sg261
V192.168.5.1
p866
sg263
I24
sa(dp867
g255
I2
sg256
I256
sg10
V192.168.12.0
p868
sg258
S''
sg259
I200
sg260
I0
sg261
V192.168.5.1
p869
sg263
I24
sa(dp870
g255
I2
sg256
I256
sg10
V192.168.10.0
p871
sg258
S''
sg259
I200
sg260
I0
sg261
V192.168.5.1
p872
sg263
I24
sa(dp873
g255
I2
sg256
I256
sg10
V192.168.9.0
p874
sg258
S''
sg259
I200
sg260
I0
sg261
V192.168.5.1
p875
sg263
I24
sa(dp876
g255
I2
sg256
I256
sg10
V192.168.6.0
p877
sg258
S''
sg259
I200
sg260
I0
sg261
V192.168.5.1
p878
sg263
I24
sa(dp879
g255
I2
sg256
I256
sg10
V192.168.2.0
p880
sg258
S''
sg259
I200
sg260
I0
sg261
V192.168.5.1
p881
sg263
I24
sa(dp882
g255
I2
sg256
I257
sg10
V192.168.1.0
p883
sg258
S''
sg259
I200
sg260
I0
sg261
V192.168.5.1
p884
sg263
I24
sa(dp885
g255
I2
sg256
I257
sg10
V192.168.99.99
p886
sg258
S''
sg259
I200
sg260
I0
sg261
V192.168.5.1
p887
sg263
I32
sa(dp888
g255
I2
sg256
I0
sg10
V192.168.14.0
p889
sg258
S''
sg259
I200
sg260
I0
sg261
V192.168.13.2
p890
sg263
I24
sa(dp891
g255
I2
sg256
I0
sg10
V192.168.31.0
p892
sg258
S''
sg259
I200
sg260
I0
sg261
V192.168.13.2
p893
sg263
I24
sa(dp894
g255
I2
sg256
I3
sg10
V10.21.3.0
p895
sg258
S''
sg259
I200
sg260
I0
sg261
V192.168.13.2
p896
sg263
I24
sa(dp897
g255
I0
sg256
I0
sg10
V192.168.23.0
p898
sg258
S''
sg259
I200
sg260
I0
sg261
V192.168.13.2
p899
sg263
I24
sa(dp900
g255
I0
sg256
I0
sg10
V192.168.11.0
p901
sg258
S''
sg259
I200
sg260
I0
sg261
V192.168.51.2
p902
sg263
I24
sa(dp903
g255
I2
sg256
I2
sg10
V192.168.41.0
p904
sg258
S''
sg259
I200
sg260
I0
sg261
V192.168.13.2
p905
sg263
I24
sa(dp906
g255
I0
sg256
I0
sg10
V192.168.23.0
p907
sg258
S''
sg259
I100
sg260
I0
sg261
V192.168.11.2
p908
sg263
I24
sa(dp909
g255
I0
sg256
I0
sg10
V192.168.11.0
p910
sg258
S''
sg259
I100
sg260
I0
sg261
V192.168.11.2
p911
sg263
I24
sa(dp912
g255
I2
sg256
I0
sg10
V192.168.12.0
p913
sg258
S''
sg259
I100
sg260
I0
sg261
V192.168.11.2
p914
sg263
I24
sa(dp915
g255
I2
sg256
I74
sg10
V192.168.7.0
p916
sg258
S''
sg259
I100
sg260
I0
sg261
V192.168.12.1
p917
sg263
I24
sa(dp918
g255
I2
sg256
I128
sg10
V192.168.79.0
p919
sg258
S''
sg259
I100
sg260
I0
sg261
V192.168.12.1
p920
sg263
I24
sa(dp921
g255
I2
sg256
I128
sg10
V192.168.27.0
p922
sg258
S''
sg259
I100
sg260
I0
sg261
V192.168.12.1
p923
sg263
I24
sa(dp924
g255
I2
sg256
I128
sg10
V192.168.17.0
p925
sg258
S''
sg259
I100
sg260
I0
sg261
V192.168.12.1
p926
sg263
I24
sa(dp927
g255
I2
sg256
I129
sg10
V192.168.1.0
p928
sg258
S''
sg259
I100
sg260
I0
sg261
V192.168.12.1
p929
sg263
I24
sa(dp930
g255
I2
sg256
I129
sg10
V192.168.99.99
p931
sg258
S''
sg259
I100
sg260
I0
sg261
V192.168.12.1
p932
sg263
I32
sa(dp933
g255
I2
sg256
I138
sg10
V192.168.39.0
p934
sg258
S''
sg259
I100
sg260
I0
sg261
V192.168.12.1
p935
sg263
I24
sa(dp936
g255
I2
sg256
I138
sg10
V192.168.4.0
p937
sg258
S''
sg259
I100
sg260
I0
sg261
V192.168.12.1
p938
sg263
I24
sa(dp939
g255
I2
sg256
I138
sg10
V192.168.3.0
p940
sg258
S''
sg259
I100
sg260
I0
sg261
V192.168.12.1
p941
sg263
I24
sa(dp942
g255
I2
sg256
I192
sg10
V192.168.29.0
p943
sg258
S''
sg259
I100
sg260
I0
sg261
V192.168.12.1
p944
sg263
I24
sa(dp945
g255
I2
sg256
I192
sg10
V192.168.10.0
p946
sg258
S''
sg259
I100
sg260
I0
sg261
V192.168.12.1
p947
sg263
I24
sa(dp948
g255
I2
sg256
I192
sg10
V192.168.9.0
p949
sg258
S''
sg259
I100
sg260
I0
sg261
V192.168.12.1
p950
sg263
I24
sa(dp951
g255
I2
sg256
I192
sg10
V192.168.6.0
p952
sg258
S''
sg259
I100
sg260
I0
sg261
V192.168.12.1
p953
sg263
I24
sa(dp954
g255
I2
sg256
I192
sg10
V192.168.2.0
p955
sg258
S''
sg259
I100
sg260
I0
sg261
V192.168.12.1
p956
sg263
I24
sa(dp957
g255
I2
sg256
I202
sg10
V192.168.5.0
p958
sg258
S''
sg259
I100
sg260
I0
sg261
V192.168.12.1
p959
sg263
I24
sa(dp960
g255
I2
sg256
I0
sg10
V192.168.14.0
p961
sg258
S''
sg259
I100
sg260
I0
sg261
V192.168.23.2
p962
sg263
I24
sa(dp963
g255
I2
sg256
I0
sg10
V192.168.31.0
p964
sg258
S''
sg259
I100
sg260
I0
sg261
V192.168.11.1
p965
sg263
I24
sa(dp966
g255
I2
sg256
I0
sg10
V192.168.41.0
p967
sg258
S''
sg259
I100
sg260
I0
sg261
V192.168.11.1
p968
sg263
I24
sa(dp969
g255
I2
sg256
I2
sg10
V10.21.3.0
p970
sg258
S''
sg259
I100
sg260
I0
sg261
V192.168.11.1
p971
sg263
I24
sa(dp972
g255
I0
sg256
I0
sg10
V192.168.13.0
p973
sg258
S''
sg259
I100
sg260
I0
sg261
V192.168.23.2
p974
sg263
I24
sa(dp975
g255
I0
sg256
I0
sg10
V192.168.51.0
p976
sg258
S''
sg259
I100
sg260
I0
sg261
V192.168.11.1
p977
sg263
I24
sa(dp978
g255
I0
sg256
I0
sg10
V192.168.51.0
p979
sg258
S''
sg259
I200
sg260
I0
sg261
V192.168.13.1
p980
sg263
I24
sa(dp981
g255
I0
sg256
I0
sg10
V192.168.13.0
p982
sg258
S''
sg259
I200
sg260
I0
sg261
V192.168.13.1
p983
sg263
I24
sa(dp984
g255
I2
sg256
I0
sg10
V192.168.5.0
p985
sg258
S''
sg259
I200
sg260
I0
sg261
V192.168.13.1
p986
sg263
I24
sa(dp987
g255
I2
sg256
I128
sg10
V192.168.4.0
p988
sg258
S''
sg259
I200
sg260
I0
sg261
V192.168.5.1
p989
sg263
I24
sa(dp990
g255
I2
sg256
I192
sg10
V192.168.39.0
p991
sg258
S''
sg259
I200
sg260
I0
sg261
V192.168.5.1
p992
sg263
I24
sa(dp993
g255
I2
sg256
I192
sg10
V192.168.7.0
p994
sg258
S''
sg259
I200
sg260
I0
sg261
V192.168.5.1
p995
sg263
I24
sa(dp996
g255
I2
sg256
I192
sg10
V192.168.3.0
p997
sg258
S''
sg259
I200
sg260
I0
sg261
V192.168.5.1
p998
sg263
I24
sa(dp999
g255
I2
sg256
I256
sg10
V192.168.79.0
p1000
sg258
S''
sg259
I200
sg260
I0
sg261
V192.168.5.1
p1001
sg263
I24
sa(dp1002
g255
I2
sg256
I256
sg10
V192.168.29.0
p1003
sg258
S''
sg259
I200
sg260
I0
sg261
V192.168.5.1
p1004
sg263
I24
sa(dp1005
g255
I2
sg256
I256
sg10
V192.168.27.0
p1006
sg258
S''
sg259
I200
sg260
I0
sg261
V192.168.5.1
p1007
sg263
I24
sa(dp1008
g255
I2
sg256
I256
sg10
V192.168.17.0
p1009
sg258
S''
sg259
I200
sg260
I0
sg261
V192.168.5.1
p1010
sg263
I24
sa(dp1011
g255
I2
sg256
I256
sg10
V192.168.12.0
p1012
sg258
S''
sg259
I200
sg260
I0
sg261
V192.168.5.1
p1013
sg263
I24
sa(dp1014
g255
I2
sg256
I256
sg10
V192.168.10.0
p1015
sg258
S''
sg259
I200
sg260
I0
sg261
V192.168.5.1
p1016
sg263
I24
sa(dp1017
g255
I2
sg256
I256
sg10
V192.168.9.0
p1018
sg258
S''
sg259
I200
sg260
I0
sg261
V192.168.5.1
p1019
sg263
I24
sa(dp1020
g255
I2
sg256
I256
sg10
V192.168.6.0
p1021
sg258
S''
sg259
I200
sg260
I0
sg261
V192.168.5.1
p1022
sg263
I24
sa(dp1023
g255
I2
sg256
I256
sg10
V192.168.2.0
p1024
sg258
S''
sg259
I200
sg260
I0
sg261
V192.168.5.1
p1025
sg263
I24
sa(dp1026
g255
I2
sg256
I257
sg10
V192.168.1.0
p1027
sg258
S''
sg259
I200
sg260
I0
sg261
V192.168.5.1
p1028
sg263
I24
sa(dp1029
g255
I2
sg256
I257
sg10
V192.168.99.99
p1030
sg258
S''
sg259
I200
sg260
I0
sg261
V192.168.5.1
p1031
sg263
I32
sa(dp1032
g255
I2
sg256
I0
sg10
V192.168.14.0
p1033
sg258
S''
sg259
I200
sg260
I0
sg261
V192.168.13.2
p1034
sg263
I24
sa(dp1035
g255
I2
sg256
I0
sg10
V192.168.31.0
p1036
sg258
S''
sg259
I200
sg260
I0
sg261
V192.168.13.2
p1037
sg263
I24
sa(dp1038
g255
I2
sg256
I3
sg10
V10.21.3.0
p1039
sg258
S''
sg259
I200
sg260
I0
sg261
V192.168.13.2
p1040
sg263
I24
sa(dp1041
g255
I0
sg256
I0
sg10
V192.168.23.0
p1042
sg258
S''
sg259
I200
sg260
I0
sg261
V192.168.13.2
p1043
sg263
I24
sa(dp1044
g255
I0
sg256
I0
sg10
V192.168.11.0
p1045
sg258
S''
sg259
I200
sg260
I0
sg261
V192.168.51.2
p1046
sg263
I24
sa(dp1047
g255
I2
sg256
I2
sg10
V192.168.41.0
p1048
sg258
S''
sg259
I200
sg260
I0
sg261
V192.168.13.2
p1049
sg263
I24
sa(dp1050
g255
I0
sg256
I0
sg10
V192.168.51.0
p1051
sg258
S''
sg259
I200
sg260
I0
sg261
V192.168.13.1
p1052
sg263
I24
sa(dp1053
g255
I0
sg256
I0
sg10
V192.168.13.0
p1054
sg258
S''
sg259
I200
sg260
I0
sg261
V192.168.13.1
p1055
sg263
I24
sa(dp1056
g255
I2
sg256
I0
sg10
V192.168.5.0
p1057
sg258
S''
sg259
I200
sg260
I0
sg261
V192.168.13.1
p1058
sg263
I24
sa(dp1059
g255
I2
sg256
I128
sg10
V192.168.4.0
p1060
sg258
S''
sg259
I200
sg260
I0
sg261
V192.168.5.1
p1061
sg263
I24
sa(dp1062
g255
I2
sg256
I192
sg10
V192.168.39.0
p1063
sg258
S''
sg259
I200
sg260
I0
sg261
V192.168.5.1
p1064
sg263
I24
sa(dp1065
g255
I2
sg256
I192
sg10
V192.168.7.0
p1066
sg258
S''
sg259
I200
sg260
I0
sg261
V192.168.5.1
p1067
sg263
I24
sa(dp1068
g255
I2
sg256
I192
sg10
V192.168.3.0
p1069
sg258
S''
sg259
I200
sg260
I0
sg261
V192.168.5.1
p1070
sg263
I24
sa(dp1071
g255
I2
sg256
I256
sg10
V192.168.79.0
p1072
sg258
S''
sg259
I200
sg260
I0
sg261
V192.168.5.1
p1073
sg263
I24
sa(dp1074
g255
I2
sg256
I256
sg10
V192.168.29.0
p1075
sg258
S''
sg259
I200
sg260
I0
sg261
V192.168.5.1
p1076
sg263
I24
sa(dp1077
g255
I2
sg256
I256
sg10
V192.168.27.0
p1078
sg258
S''
sg259
I200
sg260
I0
sg261
V192.168.5.1
p1079
sg263
I24
sa(dp1080
g255
I2
sg256
I256
sg10
V192.168.17.0
p1081
sg258
S''
sg259
I200
sg260
I0
sg261
V192.168.5.1
p1082
sg263
I24
sa(dp1083
g255
I2
sg256
I256
sg10
V192.168.12.0
p1084
sg258
S''
sg259
I200
sg260
I0
sg261
V192.168.5.1
p1085
sg263
I24
sa(dp1086
g255
I2
sg256
I256
sg10
V192.168.10.0
p1087
sg258
S''
sg259
I200
sg260
I0
sg261
V192.168.5.1
p1088
sg263
I24
sa(dp1089
g255
I2
sg256
I256
sg10
V192.168.9.0
p1090
sg258
S''
sg259
I200
sg260
I0
sg261
V192.168.5.1
p1091
sg263
I24
sa(dp1092
g255
I2
sg256
I256
sg10
V192.168.6.0
p1093
sg258
S''
sg259
I200
sg260
I0
sg261
V192.168.5.1
p1094
sg263
I24
sa(dp1095
g255
I2
sg256
I256
sg10
V192.168.2.0
p1096
sg258
S''
sg259
I200
sg260
I0
sg261
V192.168.5.1
p1097
sg263
I24
sa(dp1098
g255
I2
sg256
I257
sg10
V192.168.1.0
p1099
sg258
S''
sg259
I200
sg260
I0
sg261
V192.168.5.1
p1100
sg263
I24
sa(dp1101
g255
I2
sg256
I257
sg10
V192.168.99.99
p1102
sg258
S''
sg259
I200
sg260
I0
sg261
V192.168.5.1
p1103
sg263
I32
sa(dp1104
g255
I2
sg256
I0
sg10
V192.168.14.0
p1105
sg258
S''
sg259
I200
sg260
I0
sg261
V192.168.13.2
p1106
sg263
I24
sa(dp1107
g255
I2
sg256
I0
sg10
V192.168.31.0
p1108
sg258
S''
sg259
I200
sg260
I0
sg261
V192.168.13.2
p1109
sg263
I24
sa(dp1110
g255
I2
sg256
I3
sg10
V10.21.3.0
p1111
sg258
S''
sg259
I200
sg260
I0
sg261
V192.168.13.2
p1112
sg263
I24
sa(dp1113
g255
I0
sg256
I0
sg10
V192.168.23.0
p1114
sg258
S''
sg259
I200
sg260
I0
sg261
V192.168.13.2
p1115
sg263
I24
sa(dp1116
g255
I0
sg256
I0
sg10
V192.168.11.0
p1117
sg258
S''
sg259
I200
sg260
I0
sg261
V192.168.51.2
p1118
sg263
I24
sa(dp1119
g255
I2
sg256
I2
sg10
V192.168.41.0
p1120
sg258
S''
sg259
I200
sg260
I0
sg261
V192.168.13.2
p1121
sg263
I24
sa(dp1122
g255
I0
sg256
I0
sg10
V192.168.23.0
p1123
sg258
S''
sg259
I100
sg260
I0
sg261
V192.168.11.2
p1124
sg263
I24
sa(dp1125
g255
I0
sg256
I0
sg10
V192.168.11.0
p1126
sg258
S''
sg259
I100
sg260
I0
sg261
V192.168.11.2
p1127
sg263
I24
sa(dp1128
g255
I0
sg256
I0
sg10
V192.168.23.0
p1129
sg258
S''
sg259
I100
sg260
I0
sg261
V192.168.11.2
p1130
sg263
I24
sa(dp1131
g255
I0
sg256
I0
sg10
V192.168.11.0
p1132
sg258
S''
sg259
I100
sg260
I0
sg261
V192.168.11.2
p1133
sg263
I24
sa(dp1134
g255
I2
sg256
I0
sg10
V192.168.12.0
p1135
sg258
S''
sg259
I100
sg260
I0
sg261
V192.168.11.2
p1136
sg263
I24
sa(dp1137
g255
I2
sg256
I74
sg10
V192.168.7.0
p1138
sg258
S''
sg259
I100
sg260
I0
sg261
V192.168.12.1
p1139
sg263
I24
sa(dp1140
g255
I2
sg256
I128
sg10
V192.168.79.0
p1141
sg258
S''
sg259
I100
sg260
I0
sg261
V192.168.12.1
p1142
sg263
I24
sa(dp1143
g255
I2
sg256
I128
sg10
V192.168.27.0
p1144
sg258
S''
sg259
I100
sg260
I0
sg261
V192.168.12.1
p1145
sg263
I24
sa(dp1146
g255
I2
sg256
I128
sg10
V192.168.17.0
p1147
sg258
S''
sg259
I100
sg260
I0
sg261
V192.168.12.1
p1148
sg263
I24
sa(dp1149
g255
I2
sg256
I129
sg10
V192.168.1.0
p1150
sg258
S''
sg259
I100
sg260
I0
sg261
V192.168.12.1
p1151
sg263
I24
sa(dp1152
g255
I2
sg256
I129
sg10
V192.168.99.99
p1153
sg258
S''
sg259
I100
sg260
I0
sg261
V192.168.12.1
p1154
sg263
I32
sa(dp1155
g255
I2
sg256
I138
sg10
V192.168.39.0
p1156
sg258
S''
sg259
I100
sg260
I0
sg261
V192.168.12.1
p1157
sg263
I24
sa(dp1158
g255
I2
sg256
I138
sg10
V192.168.4.0
p1159
sg258
S''
sg259
I100
sg260
I0
sg261
V192.168.12.1
p1160
sg263
I24
sa(dp1161
g255
I2
sg256
I138
sg10
V192.168.3.0
p1162
sg258
S''
sg259
I100
sg260
I0
sg261
V192.168.12.1
p1163
sg263
I24
sa(dp1164
g255
I2
sg256
I192
sg10
V192.168.29.0
p1165
sg258
S''
sg259
I100
sg260
I0
sg261
V192.168.12.1
p1166
sg263
I24
sa(dp1167
g255
I2
sg256
I192
sg10
V192.168.10.0
p1168
sg258
S''
sg259
I100
sg260
I0
sg261
V192.168.12.1
p1169
sg263
I24
sa(dp1170
g255
I2
sg256
I192
sg10
V192.168.9.0
p1171
sg258
S''
sg259
I100
sg260
I0
sg261
V192.168.12.1
p1172
sg263
I24
sa(dp1173
g255
I2
sg256
I192
sg10
V192.168.6.0
p1174
sg258
S''
sg259
I100
sg260
I0
sg261
V192.168.12.1
p1175
sg263
I24
sa(dp1176
g255
I2
sg256
I192
sg10
V192.168.2.0
p1177
sg258
S''
sg259
I100
sg260
I0
sg261
V192.168.12.1
p1178
sg263
I24
sa(dp1179
g255
I2
sg256
I202
sg10
V192.168.5.0
p1180
sg258
S''
sg259
I100
sg260
I0
sg261
V192.168.12.1
p1181
sg263
I24
sa(dp1182
g255
I2
sg256
I0
sg10
V192.168.14.0
p1183
sg258
S''
sg259
I100
sg260
I0
sg261
V192.168.23.2
p1184
sg263
I24
sa(dp1185
g255
I2
sg256
I0
sg10
V192.168.31.0
p1186
sg258
S''
sg259
I100
sg260
I0
sg261
V192.168.11.1
p1187
sg263
I24
sa(dp1188
g255
I2
sg256
I0
sg10
V192.168.41.0
p1189
sg258
S''
sg259
I100
sg260
I0
sg261
V192.168.11.1
p1190
sg263
I24
sa(dp1191
g255
I2
sg256
I2
sg10
V10.21.3.0
p1192
sg258
S''
sg259
I100
sg260
I0
sg261
V192.168.11.1
p1193
sg263
I24
sa(dp1194
g255
I0
sg256
I0
sg10
V192.168.23.0
p1195
sg258
S''
sg259
I100
sg260
I0
sg261
V192.168.11.2
p1196
sg263
I24
sa(dp1197
g255
I0
sg256
I0
sg10
V192.168.11.0
p1198
sg258
S''
sg259
I100
sg260
I0
sg261
V192.168.11.2
p1199
sg263
I24
sa(dp1200
g255
I2
sg256
I0
sg10
V192.168.12.0
p1201
sg258
S''
sg259
I100
sg260
I0
sg261
V192.168.11.2
p1202
sg263
I24
sa(dp1203
g255
I2
sg256
I74
sg10
V192.168.7.0
p1204
sg258
S''
sg259
I100
sg260
I0
sg261
V192.168.12.1
p1205
sg263
I24
sa(dp1206
g255
I2
sg256
I128
sg10
V192.168.79.0
p1207
sg258
S''
sg259
I100
sg260
I0
sg261
V192.168.12.1
p1208
sg263
I24
sa(dp1209
g255
I2
sg256
I128
sg10
V192.168.27.0
p1210
sg258
S''
sg259
I100
sg260
I0
sg261
V192.168.12.1
p1211
sg263
I24
sa(dp1212
g255
I2
sg256
I128
sg10
V192.168.17.0
p1213
sg258
S''
sg259
I100
sg260
I0
sg261
V192.168.12.1
p1214
sg263
I24
sa(dp1215
g255
I2
sg256
I129
sg10
V192.168.1.0
p1216
sg258
S''
sg259
I100
sg260
I0
sg261
V192.168.12.1
p1217
sg263
I24
sa(dp1218
g255
I2
sg256
I129
sg10
V192.168.99.99
p1219
sg258
S''
sg259
I100
sg260
I0
sg261
V192.168.12.1
p1220
sg263
I32
sa(dp1221
g255
I2
sg256
I138
sg10
V192.168.39.0
p1222
sg258
S''
sg259
I100
sg260
I0
sg261
V192.168.12.1
p1223
sg263
I24
sa(dp1224
g255
I2
sg256
I138
sg10
V192.168.4.0
p1225
sg258
S''
sg259
I100
sg260
I0
sg261
V192.168.12.1
p1226
sg263
I24
sa(dp1227
g255
I2
sg256
I138
sg10
V192.168.3.0
p1228
sg258
S''
sg259
I100
sg260
I0
sg261
V192.168.12.1
p1229
sg263
I24
sa(dp1230
g255
I2
sg256
I192
sg10
V192.168.29.0
p1231
sg258
S''
sg259
I100
sg260
I0
sg261
V192.168.12.1
p1232
sg263
I24
sa(dp1233
g255
I2
sg256
I192
sg10
V192.168.10.0
p1234
sg258
S''
sg259
I100
sg260
I0
sg261
V192.168.12.1
p1235
sg263
I24
sa(dp1236
g255
I2
sg256
I192
sg10
V192.168.9.0
p1237
sg258
S''
sg259
I100
sg260
I0
sg261
V192.168.12.1
p1238
sg263
I24
sa(dp1239
g255
I2
sg256
I192
sg10
V192.168.6.0
p1240
sg258
S''
sg259
I100
sg260
I0
sg261
V192.168.12.1
p1241
sg263
I24
sa(dp1242
g255
I2
sg256
I192
sg10
V192.168.2.0
p1243
sg258
S''
sg259
I100
sg260
I0
sg261
V192.168.12.1
p1244
sg263
I24
sa(dp1245
g255
I2
sg256
I202
sg10
V192.168.5.0
p1246
sg258
S''
sg259
I100
sg260
I0
sg261
V192.168.12.1
p1247
sg263
I24
sa(dp1248
g255
I2
sg256
I0
sg10
V192.168.14.0
p1249
sg258
S''
sg259
I100
sg260
I0
sg261
V192.168.23.2
p1250
sg263
I24
sa(dp1251
g255
I2
sg256
I0
sg10
V192.168.31.0
p1252
sg258
S''
sg259
I100
sg260
I0
sg261
V192.168.11.1
p1253
sg263
I24
sa(dp1254
g255
I2
sg256
I0
sg10
V192.168.41.0
p1255
sg258
S''
sg259
I100
sg260
I0
sg261
V192.168.11.1
p1256
sg263
I24
sa(dp1257
g255
I2
sg256
I2
sg10
V10.21.3.0
p1258
sg258
S''
sg259
I100
sg260
I0
sg261
V192.168.11.1
p1259
sg263
I24
sa(dp1260
g255
I0
sg256
I0
sg10
V192.168.13.0
p1261
sg258
S''
sg259
I100
sg260
I0
sg261
V192.168.23.2
p1262
sg263
I24
sa(dp1263
g255
I0
sg256
I0
sg10
V192.168.51.0
p1264
sg258
S''
sg259
I100
sg260
I0
sg261
V192.168.11.1
p1265
sg263
I24
sa(dp1266
g255
I0
sg256
I0
sg10
V192.168.51.0
p1267
sg258
S''
sg259
I200
sg260
I0
sg261
V192.168.13.1
p1268
sg263
I24
sa(dp1269
g255
I0
sg256
I0
sg10
V192.168.13.0
p1270
sg258
S''
sg259
I200
sg260
I0
sg261
V192.168.13.1
p1271
sg263
I24
sa(dp1272
g255
I2
sg256
I0
sg10
V192.168.5.0
p1273
sg258
S''
sg259
I200
sg260
I0
sg261
V192.168.13.1
p1274
sg263
I24
sa(dp1275
g255
I2
sg256
I128
sg10
V192.168.4.0
p1276
sg258
S''
sg259
I200
sg260
I0
sg261
V192.168.5.1
p1277
sg263
I24
sa(dp1278
g255
I2
sg256
I192
sg10
V192.168.39.0
p1279
sg258
S''
sg259
I200
sg260
I0
sg261
V192.168.5.1
p1280
sg263
I24
sa(dp1281
g255
I2
sg256
I192
sg10
V192.168.7.0
p1282
sg258
S''
sg259
I200
sg260
I0
sg261
V192.168.5.1
p1283
sg263
I24
sa(dp1284
g255
I2
sg256
I192
sg10
V192.168.3.0
p1285
sg258
S''
sg259
I200
sg260
I0
sg261
V192.168.5.1
p1286
sg263
I24
sa(dp1287
g255
I2
sg256
I256
sg10
V192.168.79.0
p1288
sg258
S''
sg259
I200
sg260
I0
sg261
V192.168.5.1
p1289
sg263
I24
sa(dp1290
g255
I2
sg256
I256
sg10
V192.168.29.0
p1291
sg258
S''
sg259
I200
sg260
I0
sg261
V192.168.5.1
p1292
sg263
I24
sa(dp1293
g255
I2
sg256
I256
sg10
V192.168.27.0
p1294
sg258
S''
sg259
I200
sg260
I0
sg261
V192.168.5.1
p1295
sg263
I24
sa(dp1296
g255
I2
sg256
I256
sg10
V192.168.17.0
p1297
sg258
S''
sg259
I200
sg260
I0
sg261
V192.168.5.1
p1298
sg263
I24
sa(dp1299
g255
I2
sg256
I256
sg10
V192.168.12.0
p1300
sg258
S''
sg259
I200
sg260
I0
sg261
V192.168.5.1
p1301
sg263
I24
sa(dp1302
g255
I2
sg256
I256
sg10
V192.168.10.0
p1303
sg258
S''
sg259
I200
sg260
I0
sg261
V192.168.5.1
p1304
sg263
I24
sa(dp1305
g255
I2
sg256
I256
sg10
V192.168.9.0
p1306
sg258
S''
sg259
I200
sg260
I0
sg261
V192.168.5.1
p1307
sg263
I24
sa(dp1308
g255
I2
sg256
I256
sg10
V192.168.6.0
p1309
sg258
S''
sg259
I200
sg260
I0
sg261
V192.168.5.1
p1310
sg263
I24
sa(dp1311
g255
I2
sg256
I256
sg10
V192.168.2.0
p1312
sg258
S''
sg259
I200
sg260
I0
sg261
V192.168.5.1
p1313
sg263
I24
sa(dp1314
g255
I2
sg256
I257
sg10
V192.168.1.0
p1315
sg258
S''
sg259
I200
sg260
I0
sg261
V192.168.5.1
p1316
sg263
I24
sa(dp1317
g255
I2
sg256
I257
sg10
V192.168.99.99
p1318
sg258
S''
sg259
I200
sg260
I0
sg261
V192.168.5.1
p1319
sg263
I32
sa(dp1320
g255
I2
sg256
I0
sg10
V192.168.14.0
p1321
sg258
S''
sg259
I200
sg260
I0
sg261
V192.168.13.2
p1322
sg263
I24
sa(dp1323
g255
I2
sg256
I0
sg10
V192.168.31.0
p1324
sg258
S''
sg259
I200
sg260
I0
sg261
V192.168.13.2
p1325
sg263
I24
sa(dp1326
g255
I2
sg256
I3
sg10
V10.21.3.0
p1327
sg258
S''
sg259
I200
sg260
I0
sg261
V192.168.13.2
p1328
sg263
I24
sa(dp1329
g255
I0
sg256
I0
sg10
V192.168.23.0
p1330
sg258
S''
sg259
I200
sg260
I0
sg261
V192.168.13.2
p1331
sg263
I24
sa(dp1332
g255
I0
sg256
I0
sg10
V192.168.11.0
p1333
sg258
S''
sg259
I200
sg260
I0
sg261
V192.168.51.2
p1334
sg263
I24
sa(dp1335
g255
I2
sg256
I2
sg10
V192.168.41.0
p1336
sg258
S''
sg259
I200
sg260
I0
sg261
V192.168.13.2
p1337
sg263
I24
sa(dp1338
g255
I0
sg256
I0
sg10
V192.168.51.0
p1339
sg258
S''
sg259
I200
sg260
I0
sg261
V192.168.13.1
p1340
sg263
I24
sa(dp1341
g255
I0
sg256
I0
sg10
V192.168.13.0
p1342
sg258
S''
sg259
I200
sg260
I0
sg261
V192.168.13.1
p1343
sg263
I24
sa(dp1344
g255
I2
sg256
I0
sg10
V192.168.5.0
p1345
sg258
S''
sg259
I200
sg260
I0
sg261
V192.168.13.1
p1346
sg263
I24
sa(dp1347
g255
I2
sg256
I128
sg10
V192.168.4.0
p1348
sg258
S''
sg259
I200
sg260
I0
sg261
V192.168.5.1
p1349
sg263
I24
sa(dp1350
g255
I2
sg256
I192
sg10
V192.168.39.0
p1351
sg258
S''
sg259
I200
sg260
I0
sg261
V192.168.5.1
p1352
sg263
I24
sa(dp1353
g255
I2
sg256
I192
sg10
V192.168.7.0
p1354
sg258
S''
sg259
I200
sg260
I0
sg261
V192.168.5.1
p1355
sg263
I24
sa(dp1356
g255
I2
sg256
I192
sg10
V192.168.3.0
p1357
sg258
S''
sg259
I200
sg260
I0
sg261
V192.168.5.1
p1358
sg263
I24
sa(dp1359
g255
I2
sg256
I256
sg10
V192.168.79.0
p1360
sg258
S''
sg259
I200
sg260
I0
sg261
V192.168.5.1
p1361
sg263
I24
sa(dp1362
g255
I2
sg256
I256
sg10
V192.168.29.0
p1363
sg258
S''
sg259
I200
sg260
I0
sg261
V192.168.5.1
p1364
sg263
I24
sa(dp1365
g255
I2
sg256
I256
sg10
V192.168.27.0
p1366
sg258
S''
sg259
I200
sg260
I0
sg261
V192.168.5.1
p1367
sg263
I24
sa(dp1368
g255
I2
sg256
I256
sg10
V192.168.17.0
p1369
sg258
S''
sg259
I200
sg260
I0
sg261
V192.168.5.1
p1370
sg263
I24
sa(dp1371
g255
I0
sg256
I0
sg10
V192.168.23.0
p1372
sg258
S''
sg259
I100
sg260
I0
sg261
V192.168.11.2
p1373
sg263
I24
sa(dp1374
g255
I0
sg256
I0
sg10
V192.168.11.0
p1375
sg258
S''
sg259
I100
sg260
I0
sg261
V192.168.11.2
p1376
sg263
I24
sa(dp1377
g255
I2
sg256
I0
sg10
V192.168.12.0
p1378
sg258
S''
sg259
I100
sg260
I0
sg261
V192.168.11.2
p1379
sg263
I24
sa(dp1380
g255
I2
sg256
I74
sg10
V192.168.7.0
p1381
sg258
S''
sg259
I100
sg260
I0
sg261
V192.168.12.1
p1382
sg263
I24
sa(dp1383
g255
I2
sg256
I128
sg10
V192.168.79.0
p1384
sg258
S''
sg259
I100
sg260
I0
sg261
V192.168.12.1
p1385
sg263
I24
sa(dp1386
g255
I2
sg256
I128
sg10
V192.168.27.0
p1387
sg258
S''
sg259
I100
sg260
I0
sg261
V192.168.12.1
p1388
sg263
I24
sa(dp1389
g255
I2
sg256
I128
sg10
V192.168.17.0
p1390
sg258
S''
sg259
I100
sg260
I0
sg261
V192.168.12.1
p1391
sg263
I24
sa(dp1392
g255
I2
sg256
I129
sg10
V192.168.1.0
p1393
sg258
S''
sg259
I100
sg260
I0
sg261
V192.168.12.1
p1394
sg263
I24
sa(dp1395
g255
I2
sg256
I129
sg10
V192.168.99.99
p1396
sg258
S''
sg259
I100
sg260
I0
sg261
V192.168.12.1
p1397
sg263
I32
sa(dp1398
g255
I2
sg256
I138
sg10
V192.168.39.0
p1399
sg258
S''
sg259
I100
sg260
I0
sg261
V192.168.12.1
p1400
sg263
I24
sa(dp1401
g255
I2
sg256
I138
sg10
V192.168.4.0
p1402
sg258
S''
sg259
I100
sg260
I0
sg261
V192.168.12.1
p1403
sg263
I24
sa(dp1404
g255
I2
sg256
I138
sg10
V192.168.3.0
p1405
sg258
S''
sg259
I100
sg260
I0
sg261
V192.168.12.1
p1406
sg263
I24
sa(dp1407
g255
I2
sg256
I192
sg10
V192.168.29.0
p1408
sg258
S''
sg259
I100
sg260
I0
sg261
V192.168.12.1
p1409
sg263
I24
sa(dp1410
g255
I2
sg256
I192
sg10
V192.168.10.0
p1411
sg258
S''
sg259
I100
sg260
I0
sg261
V192.168.12.1
p1412
sg263
I24
sa(dp1413
g255
I2
sg256
I192
sg10
V192.168.9.0
p1414
sg258
S''
sg259
I100
sg260
I0
sg261
V192.168.12.1
p1415
sg263
I24
sa(dp1416
g255
I2
sg256
I192
sg10
V192.168.6.0
p1417
sg258
S''
sg259
I100
sg260
I0
sg261
V192.168.12.1
p1418
sg263
I24
sa(dp1419
g255
I2
sg256
I192
sg10
V192.168.2.0
p1420
sg258
S''
sg259
I100
sg260
I0
sg261
V192.168.12.1
p1421
sg263
I24
sa(dp1422
g255
I2
sg256
I202
sg10
V192.168.5.0
p1423
sg258
S''
sg259
I100
sg260
I0
sg261
V192.168.12.1
p1424
sg263
I24
sa(dp1425
g255
I2
sg256
I0
sg10
V192.168.14.0
p1426
sg258
S''
sg259
I100
sg260
I0
sg261
V192.168.23.2
p1427
sg263
I24
sa(dp1428
g255
I2
sg256
I0
sg10
V192.168.31.0
p1429
sg258
S''
sg259
I100
sg260
I0
sg261
V192.168.11.1
p1430
sg263
I24
sa(dp1431
g255
I2
sg256
I0
sg10
V192.168.41.0
p1432
sg258
S''
sg259
I100
sg260
I0
sg261
V192.168.11.1
p1433
sg263
I24
sa(dp1434
g255
I2
sg256
I2
sg10
V10.21.3.0
p1435
sg258
S''
sg259
I100
sg260
I0
sg261
V192.168.11.1
p1436
sg263
I24
sa(dp1437
g255
I0
sg256
I0
sg10
V192.168.13.0
p1438
sg258
S''
sg259
I100
sg260
I0
sg261
V192.168.23.2
p1439
sg263
I24
sa(dp1440
g255
I0
sg256
I0
sg10
V192.168.51.0
p1441
sg258
S''
sg259
I100
sg260
I0
sg261
V192.168.11.1
p1442
sg263
I24
sa(dp1443
g255
I0
sg256
I0
sg10
V192.168.51.0
p1444
sg258
S''
sg259
I200
sg260
I0
sg261
V192.168.13.1
p1445
sg263
I24
sa(dp1446
g255
I0
sg256
I0
sg10
V192.168.13.0
p1447
sg258
S''
sg259
I200
sg260
I0
sg261
V192.168.13.1
p1448
sg263
I24
sa(dp1449
g255
I2
sg256
I0
sg10
V192.168.5.0
p1450
sg258
S''
sg259
I200
sg260
I0
sg261
V192.168.13.1
p1451
sg263
I24
sa(dp1452
g255
I2
sg256
I128
sg10
V192.168.4.0
p1453
sg258
S''
sg259
I200
sg260
I0
sg261
V192.168.5.1
p1454
sg263
I24
sa(dp1455
g255
I2
sg256
I192
sg10
V192.168.39.0
p1456
sg258
S''
sg259
I200
sg260
I0
sg261
V192.168.5.1
p1457
sg263
I24
sa(dp1458
g255
I2
sg256
I192
sg10
V192.168.7.0
p1459
sg258
S''
sg259
I200
sg260
I0
sg261
V192.168.5.1
p1460
sg263
I24
sa(dp1461
g255
I2
sg256
I192
sg10
V192.168.3.0
p1462
sg258
S''
sg259
I200
sg260
I0
sg261
V192.168.5.1
p1463
sg263
I24
sa(dp1464
g255
I2
sg256
I256
sg10
V192.168.79.0
p1465
sg258
S''
sg259
I200
sg260
I0
sg261
V192.168.5.1
p1466
sg263
I24
sa(dp1467
g255
I2
sg256
I256
sg10
V192.168.29.0
p1468
sg258
S''
sg259
I200
sg260
I0
sg261
V192.168.5.1
p1469
sg263
I24
sa(dp1470
g255
I2
sg256
I256
sg10
V192.168.27.0
p1471
sg258
S''
sg259
I200
sg260
I0
sg261
V192.168.5.1
p1472
sg263
I24
sa(dp1473
g255
I2
sg256
I256
sg10
V192.168.17.0
p1474
sg258
S''
sg259
I200
sg260
I0
sg261
V192.168.5.1
p1475
sg263
I24
sa(dp1476
g255
I2
sg256
I256
sg10
V192.168.12.0
p1477
sg258
S''
sg259
I200
sg260
I0
sg261
V192.168.5.1
p1478
sg263
I24
sa(dp1479
g255
I2
sg256
I256
sg10
V192.168.10.0
p1480
sg258
S''
sg259
I200
sg260
I0
sg261
V192.168.5.1
p1481
sg263
I24
sa(dp1482
g255
I2
sg256
I256
sg10
V192.168.9.0
p1483
sg258
S''
sg259
I200
sg260
I0
sg261
V192.168.5.1
p1484
sg263
I24
sa(dp1485
g255
I2
sg256
I256
sg10
V192.168.6.0
p1486
sg258
S''
sg259
I200
sg260
I0
sg261
V192.168.5.1
p1487
sg263
I24
sa(dp1488
g255
I2
sg256
I256
sg10
V192.168.2.0
p1489
sg258
S''
sg259
I200
sg260
I0
sg261
V192.168.5.1
p1490
sg263
I24
sa(dp1491
g255
I2
sg256
I257
sg10
V192.168.1.0
p1492
sg258
S''
sg259
I200
sg260
I0
sg261
V192.168.5.1
p1493
sg263
I24
sa(dp1494
g255
I2
sg256
I257
sg10
V192.168.99.99
p1495
sg258
S''
sg259
I200
sg260
I0
sg261
V192.168.5.1
p1496
sg263
I32
sa(dp1497
g255
I2
sg256
I0
sg10
V192.168.14.0
p1498
sg258
S''
sg259
I200
sg260
I0
sg261
V192.168.13.2
p1499
sg263
I24
sa(dp1500
g255
I2
sg256
I0
sg10
V192.168.31.0
p1501
sg258
S''
sg259
I200
sg260
I0
sg261
V192.168.13.2
p1502
sg263
I24
sa(dp1503
g255
I2
sg256
I3
sg10
V10.21.3.0
p1504
sg258
S''
sg259
I200
sg260
I0
sg261
V192.168.13.2
p1505
sg263
I24
sa(dp1506
g255
I0
sg256
I0
sg10
V192.168.23.0
p1507
sg258
S''
sg259
I200
sg260
I0
sg261
V192.168.13.2
p1508
sg263
I24
sa(dp1509
g255
I0
sg256
I0
sg10
V192.168.11.0
p1510
sg258
S''
sg259
I200
sg260
I0
sg261
V192.168.51.2
p1511
sg263
I24
sa(dp1512
g255
I2
sg256
I2
sg10
V192.168.41.0
p1513
sg258
S''
sg259
I200
sg260
I0
sg261
V192.168.13.2
p1514
sg263
I24
sa(dp1515
g255
I0
sg256
I0
sg10
V192.168.23.0
p1516
sg258
S''
sg259
I100
sg260
I0
sg261
V192.168.11.2
p1517
sg263
I24
sa(dp1518
g255
I0
sg256
I0
sg10
V192.168.11.0
p1519
sg258
S''
sg259
I100
sg260
I0
sg261
V192.168.11.2
p1520
sg263
I24
sa(dp1521
g255
I2
sg256
I0
sg10
V192.168.12.0
p1522
sg258
S''
sg259
I100
sg260
I0
sg261
V192.168.11.2
p1523
sg263
I24
sa(dp1524
g255
I2
sg256
I74
sg10
V192.168.7.0
p1525
sg258
S''
sg259
I100
sg260
I0
sg261
V192.168.12.1
p1526
sg263
I24
sa(dp1527
g255
I2
sg256
I128
sg10
V192.168.79.0
p1528
sg258
S''
sg259
I100
sg260
I0
sg261
V192.168.12.1
p1529
sg263
I24
sa(dp1530
g255
I2
sg256
I128
sg10
V192.168.27.0
p1531
sg258
S''
sg259
I100
sg260
I0
sg261
V192.168.12.1
p1532
sg263
I24
sa(dp1533
g255
I2
sg256
I128
sg10
V192.168.17.0
p1534
sg258
S''
sg259
I100
sg260
I0
sg261
V192.168.12.1
p1535
sg263
I24
sa(dp1536
g255
I2
sg256
I129
sg10
V192.168.1.0
p1537
sg258
S''
sg259
I100
sg260
I0
sg261
V192.168.12.1
p1538
sg263
I24
sa(dp1539
g255
I2
sg256
I129
sg10
V192.168.99.99
p1540
sg258
S''
sg259
I100
sg260
I0
sg261
V192.168.12.1
p1541
sg263
I32
sa(dp1542
g255
I2
sg256
I138
sg10
V192.168.39.0
p1543
sg258
S''
sg259
I100
sg260
I0
sg261
V192.168.12.1
p1544
sg263
I24
sa(dp1545
g255
I2
sg256
I138
sg10
V192.168.4.0
p1546
sg258
S''
sg259
I100
sg260
I0
sg261
V192.168.12.1
p1547
sg263
I24
sa(dp1548
g255
I2
sg256
I138
sg10
V192.168.3.0
p1549
sg258
S''
sg259
I100
sg260
I0
sg261
V192.168.12.1
p1550
sg263
I24
sa(dp1551
g255
I2
sg256
I192
sg10
V192.168.29.0
p1552
sg258
S''
sg259
I100
sg260
I0
sg261
V192.168.12.1
p1553
sg263
I24
sa(dp1554
g255
I2
sg256
I192
sg10
V192.168.10.0
p1555
sg258
S''
sg259
I100
sg260
I0
sg261
V192.168.12.1
p1556
sg263
I24
sa(dp1557
g255
I2
sg256
I192
sg10
V192.168.9.0
p1558
sg258
S''
sg259
I100
sg260
I0
sg261
V192.168.12.1
p1559
sg263
I24
sa(dp1560
g255
I2
sg256
I192
sg10
V192.168.6.0
p1561
sg258
S''
sg259
I100
sg260
I0
sg261
V192.168.12.1
p1562
sg263
I24
sa(dp1563
g255
I2
sg256
I192
sg10
V192.168.2.0
p1564
sg258
S''
sg259
I100
sg260
I0
sg261
V192.168.12.1
p1565
sg263
I24
sa(dp1566
g255
I2
sg256
I202
sg10
V192.168.5.0
p1567
sg258
S''
sg259
I100
sg260
I0
sg261
V192.168.12.1
p1568
sg263
I24
sa(dp1569
g255
I2
sg256
I0
sg10
V192.168.14.0
p1570
sg258
S''
sg259
I100
sg260
I0
sg261
V192.168.23.2
p1571
sg263
I24
sa(dp1572
g255
I2
sg256
I0
sg10
V192.168.31.0
p1573
sg258
S''
sg259
I100
sg260
I0
sg261
V192.168.11.1
p1574
sg263
I24
sa(dp1575
g255
I2
sg256
I0
sg10
V192.168.41.0
p1576
sg258
S''
sg259
I100
sg260
I0
sg261
V192.168.11.1
p1577
sg263
I24
sa(dp1578
g255
I2
sg256
I2
sg10
V10.21.3.0
p1579
sg258
S''
sg259
I100
sg260
I0
sg261
V192.168.11.1
p1580
sg263
I24
sa(dp1581
g255
I0
sg256
I0
sg10
V192.168.13.0
p1582
sg258
S''
sg259
I100
sg260
I0
sg261
V192.168.23.2
p1583
sg263
I24
sa(dp1584
g255
I0
sg256
I0
sg10
V192.168.51.0
p1585
sg258
S''
sg259
I100
sg260
I0
sg261
V192.168.11.1
p1586
sg263
I24
sa(dp1587
g255
I0
sg256
I0
sg10
V192.168.51.0
p1588
sg258
S''
sg259
I200
sg260
I0
sg261
V192.168.13.1
p1589
sg263
I24
sa(dp1590
g255
I0
sg256
I0
sg10
V192.168.13.0
p1591
sg258
S''
sg259
I200
sg260
I0
sg261
V192.168.13.1
p1592
sg263
I24
sa(dp1593
g255
I2
sg256
I0
sg10
V192.168.5.0
p1594
sg258
S''
sg259
I200
sg260
I0
sg261
V192.168.13.1
p1595
sg263
I24
sa(dp1596
g255
I2
sg256
I128
sg10
V192.168.4.0
p1597
sg258
S''
sg259
I200
sg260
I0
sg261
V192.168.5.1
p1598
sg263
I24
sa(dp1599
g255
I2
sg256
I192
sg10
V192.168.39.0
p1600
sg258
S''
sg259
I200
sg260
I0
sg261
V192.168.5.1
p1601
sg263
I24
sa(dp1602
g255
I2
sg256
I192
sg10
V192.168.7.0
p1603
sg258
S''
sg259
I200
sg260
I0
sg261
V192.168.5.1
p1604
sg263
I24
sa(dp1605
g255
I2
sg256
I192
sg10
V192.168.3.0
p1606
sg258
S''
sg259
I200
sg260
I0
sg261
V192.168.5.1
p1607
sg263
I24
sa(dp1608
g255
I2
sg256
I256
sg10
V192.168.79.0
p1609
sg258
S''
sg259
I200
sg260
I0
sg261
V192.168.5.1
p1610
sg263
I24
sa(dp1611
g255
I2
sg256
I256
sg10
V192.168.29.0
p1612
sg258
S''
sg259
I200
sg260
I0
sg261
V192.168.5.1
p1613
sg263
I24
sa(dp1614
g255
I2
sg256
I256
sg10
V192.168.27.0
p1615
sg258
S''
sg259
I200
sg260
I0
sg261
V192.168.5.1
p1616
sg263
I24
sa(dp1617
g255
I2
sg256
I256
sg10
V192.168.17.0
p1618
sg258
S''
sg259
I200
sg260
I0
sg261
V192.168.5.1
p1619
sg263
I24
sa(dp1620
g255
I2
sg256
I256
sg10
V192.168.12.0
p1621
sg258
S''
sg259
I200
sg260
I0
sg261
V192.168.5.1
p1622
sg263
I24
sa(dp1623
g255
I2
sg256
I256
sg10
V192.168.10.0
p1624
sg258
S''
sg259
I200
sg260
I0
sg261
V192.168.5.1
p1625
sg263
I24
sa(dp1626
g255
I2
sg256
I256
sg10
V192.168.9.0
p1627
sg258
S''
sg259
I200
sg260
I0
sg261
V192.168.5.1
p1628
sg263
I24
sa(dp1629
g255
I2
sg256
I256
sg10
V192.168.6.0
p1630
sg258
S''
sg259
I200
sg260
I0
sg261
V192.168.5.1
p1631
sg263
I24
sa(dp1632
g255
I2
sg256
I256
sg10
V192.168.2.0
p1633
sg258
S''
sg259
I200
sg260
I0
sg261
V192.168.5.1
p1634
sg263
I24
sa(dp1635
g255
I2
sg256
I257
sg10
V192.168.1.0
p1636
sg258
S''
sg259
I200
sg260
I0
sg261
V192.168.5.1
p1637
sg263
I24
sa(dp1638
g255
I2
sg256
I257
sg10
V192.168.99.99
p1639
sg258
S''
sg259
I200
sg260
I0
sg261
V192.168.5.1
p1640
sg263
I32
sa(dp1641
g255
I2
sg256
I0
sg10
V192.168.14.0
p1642
sg258
S''
sg259
I200
sg260
I0
sg261
V192.168.13.2
p1643
sg263
I24
sa(dp1644
g255
I2
sg256
I0
sg10
V192.168.31.0
p1645
sg258
S''
sg259
I200
sg260
I0
sg261
V192.168.13.2
p1646
sg263
I24
sa(dp1647
g255
I2
sg256
I3
sg10
V10.21.3.0
p1648
sg258
S''
sg259
I200
sg260
I0
sg261
V192.168.13.2
p1649
sg263
I24
sa(dp1650
g255
I0
sg256
I0
sg10
V192.168.23.0
p1651
sg258
S''
sg259
I200
sg260
I0
sg261
V192.168.13.2
p1652
sg263
I24
sa(dp1653
g255
I0
sg256
I0
sg10
V192.168.11.0
p1654
sg258
S''
sg259
I200
sg260
I0
sg261
V192.168.51.2
p1655
sg263
I24
sa(dp1656
g255
I2
sg256
I2
sg10
V192.168.41.0
p1657
sg258
S''
sg259
I200
sg260
I0
sg261
V192.168.13.2
p1658
sg263
I24
sa(dp1659
g255
I0
sg256
I0
sg10
V192.168.51.0
p1660
sg258
S''
sg259
I200
sg260
I0
sg261
V192.168.13.1
p1661
sg263
I24
sa(dp1662
g255
I0
sg256
I0
sg10
V192.168.13.0
p1663
sg258
S''
sg259
I200
sg260
I0
sg261
V192.168.13.1
p1664
sg263
I24
sa(dp1665
g255
I2
sg256
I0
sg10
V192.168.5.0
p1666
sg258
S''
sg259
I200
sg260
I0
sg261
V192.168.13.1
p1667
sg263
I24
sa(dp1668
g255
I2
sg256
I128
sg10
V192.168.4.0
p1669
sg258
S''
sg259
I200
sg260
I0
sg261
V192.168.5.1
p1670
sg263
I24
sa(dp1671
g255
I2
sg256
I192
sg10
V192.168.39.0
p1672
sg258
S''
sg259
I200
sg260
I0
sg261
V192.168.5.1
p1673
sg263
I24
sa(dp1674
g255
I2
sg256
I192
sg10
V192.168.7.0
p1675
sg258
S''
sg259
I200
sg260
I0
sg261
V192.168.5.1
p1676
sg263
I24
sa(dp1677
g255
I2
sg256
I192
sg10
V192.168.3.0
p1678
sg258
S''
sg259
I200
sg260
I0
sg261
V192.168.5.1
p1679
sg263
I24
sa(dp1680
g255
I2
sg256
I256
sg10
V192.168.79.0
p1681
sg258
S''
sg259
I200
sg260
I0
sg261
V192.168.5.1
p1682
sg263
I24
sa(dp1683
g255
I2
sg256
I256
sg10
V192.168.29.0
p1684
sg258
S''
sg259
I200
sg260
I0
sg261
V192.168.5.1
p1685
sg263
I24
sa(dp1686
g255
I2
sg256
I256
sg10
V192.168.27.0
p1687
sg258
S''
sg259
I200
sg260
I0
sg261
V192.168.5.1
p1688
sg263
I24
sa(dp1689
g255
I2
sg256
I256
sg10
V192.168.17.0
p1690
sg258
S''
sg259
I200
sg260
I0
sg261
V192.168.5.1
p1691
sg263
I24
sa(dp1692
g255
I2
sg256
I256
sg10
V192.168.12.0
p1693
sg258
S''
sg259
I200
sg260
I0
sg261
V192.168.5.1
p1694
sg263
I24
sa(dp1695
g255
I2
sg256
I256
sg10
V192.168.10.0
p1696
sg258
S''
sg259
I200
sg260
I0
sg261
V192.168.5.1
p1697
sg263
I24
sa(dp1698
g255
I2
sg256
I256
sg10
V192.168.9.0
p1699
sg258
S''
sg259
I200
sg260
I0
sg261
V192.168.5.1
p1700
sg263
I24
sa(dp1701
g255
I2
sg256
I256
sg10
V192.168.6.0
p1702
sg258
S''
sg259
I200
sg260
I0
sg261
V192.168.5.1
p1703
sg263
I24
sa(dp1704
g255
I2
sg256
I256
sg10
V192.168.2.0
p1705
sg258
S''
sg259
I200
sg260
I0
sg261
V192.168.5.1
p1706
sg263
I24
sa(dp1707
g255
I2
sg256
I257
sg10
V192.168.1.0
p1708
sg258
S''
sg259
I200
sg260
I0
sg261
V192.168.5.1
p1709
sg263
I24
sa(dp1710
g255
I2
sg256
I257
sg10
V192.168.99.99
p1711
sg258
S''
sg259
I200
sg260
I0
sg261
V192.168.5.1
p1712
sg263
I32
sa(dp1713
g255
I2
sg256
I0
sg10
V192.168.14.0
p1714
sg258
S''
sg259
I200
sg260
I0
sg261
V192.168.13.2
p1715
sg263
I24
sa(dp1716
g255
I2
sg256
I0
sg10
V192.168.31.0
p1717
sg258
S''
sg259
I200
sg260
I0
sg261
V192.168.13.2
p1718
sg263
I24
sa(dp1719
g255
I2
sg256
I3
sg10
V10.21.3.0
p1720
sg258
S''
sg259
I200
sg260
I0
sg261
V192.168.13.2
p1721
sg263
I24
sa(dp1722
g255
I0
sg256
I0
sg10
V192.168.23.0
p1723
sg258
S''
sg259
I200
sg260
I0
sg261
V192.168.13.2
p1724
sg263
I24
sa(dp1725
g255
I0
sg256
I0
sg10
V192.168.11.0
p1726
sg258
S''
sg259
I200
sg260
I0
sg261
V192.168.51.2
p1727
sg263
I24
sa(dp1728
g255
I2
sg256
I2
sg10
V192.168.41.0
p1729
sg258
S''
sg259
I200
sg260
I0
sg261
V192.168.13.2
p1730
sg263
I24
sa(dp1731
g255
I0
sg256
I0
sg10
V192.168.23.0
p1732
sg258
S''
sg259
I100
sg260
I0
sg261
V192.168.11.2
p1733
sg263
I24
sa(dp1734
g255
I0
sg256
I0
sg10
V192.168.11.0
p1735
sg258
S''
sg259
I100
sg260
I0
sg261
V192.168.11.2
p1736
sg263
I24
sa(dp1737
g255
I2
sg256
I0
sg10
V192.168.12.0
p1738
sg258
S''
sg259
I100
sg260
I0
sg261
V192.168.11.2
p1739
sg263
I24
sa(dp1740
g255
I2
sg256
I74
sg10
V192.168.7.0
p1741
sg258
S''
sg259
I100
sg260
I0
sg261
V192.168.12.1
p1742
sg263
I24
sa(dp1743
g255
I2
sg256
I128
sg10
V192.168.79.0
p1744
sg258
S''
sg259
I100
sg260
I0
sg261
V192.168.12.1
p1745
sg263
I24
sa(dp1746
g255
I2
sg256
I128
sg10
V192.168.27.0
p1747
sg258
S''
sg259
I100
sg260
I0
sg261
V192.168.12.1
p1748
sg263
I24
sa(dp1749
g255
I2
sg256
I128
sg10
V192.168.17.0
p1750
sg258
S''
sg259
I100
sg260
I0
sg261
V192.168.12.1
p1751
sg263
I24
sa(dp1752
g255
I2
sg256
I129
sg10
V192.168.1.0
p1753
sg258
S''
sg259
I100
sg260
I0
sg261
V192.168.12.1
p1754
sg263
I24
sa(dp1755
g255
I2
sg256
I129
sg10
V192.168.99.99
p1756
sg258
S''
sg259
I100
sg260
I0
sg261
V192.168.12.1
p1757
sg263
I32
sa(dp1758
g255
I2
sg256
I138
sg10
V192.168.39.0
p1759
sg258
S''
sg259
I100
sg260
I0
sg261
V192.168.12.1
p1760
sg263
I24
sa(dp1761
g255
I2
sg256
I138
sg10
V192.168.4.0
p1762
sg258
S''
sg259
I100
sg260
I0
sg261
V192.168.12.1
p1763
sg263
I24
sa(dp1764
g255
I2
sg256
I138
sg10
V192.168.3.0
p1765
sg258
S''
sg259
I100
sg260
I0
sg261
V192.168.12.1
p1766
sg263
I24
sa(dp1767
g255
I2
sg256
I192
sg10
V192.168.29.0
p1768
sg258
S''
sg259
I100
sg260
I0
sg261
V192.168.12.1
p1769
sg263
I24
sa(dp1770
g255
I2
sg256
I192
sg10
V192.168.10.0
p1771
sg258
S''
sg259
I100
sg260
I0
sg261
V192.168.12.1
p1772
sg263
I24
sa(dp1773
g255
I2
sg256
I192
sg10
V192.168.9.0
p1774
sg258
S''
sg259
I100
sg260
I0
sg261
V192.168.12.1
p1775
sg263
I24
sa(dp1776
g255
I2
sg256
I192
sg10
V192.168.6.0
p1777
sg258
S''
sg259
I100
sg260
I0
sg261
V192.168.12.1
p1778
sg263
I24
sa(dp1779
g255
I2
sg256
I192
sg10
V192.168.2.0
p1780
sg258
S''
sg259
I100
sg260
I0
sg261
V192.168.12.1
p1781
sg263
I24
sa(dp1782
g255
I2
sg256
I202
sg10
V192.168.5.0
p1783
sg258
S''
sg259
I100
sg260
I0
sg261
V192.168.12.1
p1784
sg263
I24
sa(dp1785
g255
I0
sg256
I0
sg10
V192.168.23.0
p1786
sg258
S''
sg259
I100
sg260
I0
sg261
V192.168.11.2
p1787
sg263
I24
sa(dp1788
g255
I0
sg256
I0
sg10
V192.168.11.0
p1789
sg258
S''
sg259
I100
sg260
I0
sg261
V192.168.11.2
p1790
sg263
I24
sa(dp1791
g255
I2
sg256
I0
sg10
V192.168.12.0
p1792
sg258
S''
sg259
I100
sg260
I0
sg261
V192.168.11.2
p1793
sg263
I24
sa(dp1794
g255
I2
sg256
I74
sg10
V192.168.7.0
p1795
sg258
S''
sg259
I100
sg260
I0
sg261
V192.168.12.1
p1796
sg263
I24
sa(dp1797
g255
I2
sg256
I128
sg10
V192.168.79.0
p1798
sg258
S''
sg259
I100
sg260
I0
sg261
V192.168.12.1
p1799
sg263
I24
sa(dp1800
g255
I2
sg256
I128
sg10
V192.168.27.0
p1801
sg258
S''
sg259
I100
sg260
I0
sg261
V192.168.12.1
p1802
sg263
I24
sa(dp1803
g255
I2
sg256
I128
sg10
V192.168.17.0
p1804
sg258
S''
sg259
I100
sg260
I0
sg261
V192.168.12.1
p1805
sg263
I24
sa(dp1806
g255
I0
sg256
I0
sg10
V192.168.23.0
p1807
sg258
S''
sg259
I100
sg260
I0
sg261
V192.168.11.2
p1808
sg263
I24
sa(dp1809
g255
I0
sg256
I0
sg10
V192.168.11.0
p1810
sg258
S''
sg259
I100
sg260
I0
sg261
V192.168.11.2
p1811
sg263
I24
sa(dp1812
g255
I2
sg256
I0
sg10
V192.168.12.0
p1813
sg258
S''
sg259
I100
sg260
I0
sg261
V192.168.11.2
p1814
sg263
I24
sa(dp1815
g255
I2
sg256
I74
sg10
V192.168.7.0
p1816
sg258
S''
sg259
I100
sg260
I0
sg261
V192.168.12.1
p1817
sg263
I24
sa(dp1818
g255
I2
sg256
I128
sg10
V192.168.79.0
p1819
sg258
S''
sg259
I100
sg260
I0
sg261
V192.168.12.1
p1820
sg263
I24
sa(dp1821
g255
I2
sg256
I128
sg10
V192.168.27.0
p1822
sg258
S''
sg259
I100
sg260
I0
sg261
V192.168.12.1
p1823
sg263
I24
sa(dp1824
g255
I0
sg256
I0
sg10
V192.168.23.0
p1825
sg258
S''
sg259
I100
sg260
I0
sg261
V192.168.11.2
p1826
sg263
I24
sa(dp1827
g255
I0
sg256
I0
sg10
V192.168.11.0
p1828
sg258
S''
sg259
I100
sg260
I0
sg261
V192.168.11.2
p1829
sg263
I24
sa(dp1830
g255
I2
sg256
I0
sg10
V192.168.12.0
p1831
sg258
S''
sg259
I100
sg260
I0
sg261
V192.168.11.2
p1832
sg263
I24
sa(dp1833
g255
I2
sg256
I74
sg10
V192.168.7.0
p1834
sg258
S''
sg259
I100
sg260
I0
sg261
V192.168.12.1
p1835
sg263
I24
sa(dp1836
g255
I2
sg256
I128
sg10
V192.168.79.0
p1837
sg258
S''
sg259
I100
sg260
I0
sg261
V192.168.12.1
p1838
sg263
I24
sa(dp1839
g255
I2
sg256
I128
sg10
V192.168.27.0
p1840
sg258
S''
sg259
I100
sg260
I0
sg261
V192.168.12.1
p1841
sg263
I24
sa(dp1842
g255
I2
sg256
I128
sg10
V192.168.17.0
p1843
sg258
S''
sg259
I100
sg260
I0
sg261
V192.168.12.1
p1844
sg263
I24
sa(dp1845
g255
I2
sg256
I129
sg10
V192.168.1.0
p1846
sg258
S''
sg259
I100
sg260
I0
sg261
V192.168.12.1
p1847
sg263
I24
sa(dp1848
g255
I2
sg256
I129
sg10
V192.168.99.99
p1849
sg258
S''
sg259
I100
sg260
I0
sg261
V192.168.12.1
p1850
sg263
I32
sa(dp1851
g255
I2
sg256
I138
sg10
V192.168.39.0
p1852
sg258
S''
sg259
I100
sg260
I0
sg261
V192.168.12.1
p1853
sg263
I24
sa(dp1854
g255
I2
sg256
I138
sg10
V192.168.4.0
p1855
sg258
S''
sg259
I100
sg260
I0
sg261
V192.168.12.1
p1856
sg263
I24
sa(dp1857
g255
I0
sg256
I0
sg10
V192.168.51.0
p1858
sg258
S''
sg259
I200
sg260
I0
sg261
V192.168.13.1
p1859
sg263
I24
sa(dp1860
g255
I0
sg256
I0
sg10
V192.168.13.0
p1861
sg258
S''
sg259
I200
sg260
I0
sg261
V192.168.13.1
p1862
sg263
I24
sa(dp1863
g255
I2
sg256
I0
sg10
V192.168.5.0
p1864
sg258
S''
sg259
I200
sg260
I0
sg261
V192.168.13.1
p1865
sg263
I24
sa(dp1866
g255
I2
sg256
I128
sg10
V192.168.4.0
p1867
sg258
S''
sg259
I200
sg260
I0
sg261
V192.168.5.1
p1868
sg263
I24
sa(dp1869
g255
I2
sg256
I192
sg10
V192.168.39.0
p1870
sg258
S''
sg259
I200
sg260
I0
sg261
V192.168.5.1
p1871
sg263
I24
sa(dp1872
g255
I2
sg256
I192
sg10
V192.168.7.0
p1873
sg258
S''
sg259
I200
sg260
I0
sg261
V192.168.5.1
p1874
sg263
I24
sa(dp1875
g255
I2
sg256
I192
sg10
V192.168.3.0
p1876
sg258
S''
sg259
I200
sg260
I0
sg261
V192.168.5.1
p1877
sg263
I24
sa(dp1878
g255
I2
sg256
I256
sg10
V192.168.79.0
p1879
sg258
S''
sg259
I200
sg260
I0
sg261
V192.168.5.1
p1880
sg263
I24
sa(dp1881
g255
I2
sg256
I256
sg10
V192.168.29.0
p1882
sg258
S''
sg259
I200
sg260
I0
sg261
V192.168.5.1
p1883
sg263
I24
sa(dp1884
g255
I0
sg256
I0
sg10
V192.168.23.0
p1885
sg258
S''
sg259
I100
sg260
I0
sg261
V192.168.11.2
p1886
sg263
I24
sa(dp1887
g255
I0
sg256
I0
sg10
V192.168.11.0
p1888
sg258
S''
sg259
I100
sg260
I0
sg261
V192.168.11.2
p1889
sg263
I24
sa(dp1890
g255
I2
sg256
I0
sg10
V192.168.12.0
p1891
sg258
S''
sg259
I100
sg260
I0
sg261
V192.168.11.2
p1892
sg263
I24
sa(dp1893
g255
I2
sg256
I74
sg10
V192.168.7.0
p1894
sg258
S''
sg259
I100
sg260
I0
sg261
V192.168.12.1
p1895
sg263
I24
sa(dp1896
g255
I2
sg256
I128
sg10
V192.168.79.0
p1897
sg258
S''
sg259
I100
sg260
I0
sg261
V192.168.12.1
p1898
sg263
I24
sa(dp1899
g255
I2
sg256
I128
sg10
V192.168.27.0
p1900
sg258
S''
sg259
I100
sg260
I0
sg261
V192.168.12.1
p1901
sg263
I24
sa(dp1902
g255
I2
sg256
I128
sg10
V192.168.17.0
p1903
sg258
S''
sg259
I100
sg260
I0
sg261
V192.168.12.1
p1904
sg263
I24
sa(dp1905
g255
I2
sg256
I129
sg10
V192.168.1.0
p1906
sg258
S''
sg259
I100
sg260
I0
sg261
V192.168.12.1
p1907
sg263
I24
sa(dp1908
g255
I2
sg256
I129
sg10
V192.168.99.99
p1909
sg258
S''
sg259
I100
sg260
I0
sg261
V192.168.12.1
p1910
sg263
I32
sa(dp1911
g255
I2
sg256
I138
sg10
V192.168.39.0
p1912
sg258
S''
sg259
I100
sg260
I0
sg261
V192.168.12.1
p1913
sg263
I24
sa(dp1914
g255
I2
sg256
I138
sg10
V192.168.4.0
p1915
sg258
S''
sg259
I100
sg260
I0
sg261
V192.168.12.1
p1916
sg263
I24
sa(dp1917
g255
I2
sg256
I138
sg10
V192.168.3.0
p1918
sg258
S''
sg259
I100
sg260
I0
sg261
V192.168.12.1
p1919
sg263
I24
sa(dp1920
g255
I2
sg256
I192
sg10
V192.168.29.0
p1921
sg258
S''
sg259
I100
sg260
I0
sg261
V192.168.12.1
p1922
sg263
I24
sa(dp1923
g255
I2
sg256
I192
sg10
V192.168.10.0
p1924
sg258
S''
sg259
I100
sg260
I0
sg261
V192.168.12.1
p1925
sg263
I24
sa(dp1926
g255
I2
sg256
I192
sg10
V192.168.9.0
p1927
sg258
S''
sg259
I100
sg260
I0
sg261
V192.168.12.1
p1928
sg263
I24
sa(dp1929
g255
I2
sg256
I192
sg10
V192.168.6.0
p1930
sg258
S''
sg259
I100
sg260
I0
sg261
V192.168.12.1
p1931
sg263
I24
sa(dp1932
g255
I2
sg256
I192
sg10
V192.168.2.0
p1933
sg258
S''
sg259
I100
sg260
I0
sg261
V192.168.12.1
p1934
sg263
I24
sa(dp1935
g255
I2
sg256
I202
sg10
V192.168.5.0
p1936
sg258
S''
sg259
I100
sg260
I0
sg261
V192.168.12.1
p1937
sg263
I24
sa(dp1938
g255
I2
sg256
I0
sg10
V192.168.14.0
p1939
sg258
S''
sg259
I100
sg260
I0
sg261
V192.168.23.2
p1940
sg263
I24
sa(dp1941
g255
I2
sg256
I0
sg10
V192.168.31.0
p1942
sg258
S''
sg259
I100
sg260
I0
sg261
V192.168.11.1
p1943
sg263
I24
sa(dp1944
g255
I2
sg256
I0
sg10
V192.168.41.0
p1945
sg258
S''
sg259
I100
sg260
I0
sg261
V192.168.11.1
p1946
sg263
I24
sa(dp1947
g255
I2
sg256
I2
sg10
V10.21.3.0
p1948
sg258
S''
sg259
I100
sg260
I0
sg261
V192.168.11.1
p1949
sg263
I24
sa(dp1950
g255
I0
sg256
I0
sg10
V192.168.13.0
p1951
sg258
S''
sg259
I100
sg260
I0
sg261
V192.168.23.2
p1952
sg263
I24
sa(dp1953
g255
I0
sg256
I0
sg10
V192.168.51.0
p1954
sg258
S''
sg259
I100
sg260
I0
sg261
V192.168.11.1
p1955
sg263
I24
sa(dp1956
g255
I0
sg256
I0
sg10
V192.168.51.0
p1957
sg258
S''
sg259
I200
sg260
I0
sg261
V192.168.13.1
p1958
sg263
I24
sa(dp1959
g255
I0
sg256
I0
sg10
V192.168.13.0
p1960
sg258
S''
sg259
I200
sg260
I0
sg261
V192.168.13.1
p1961
sg263
I24
sa(dp1962
g255
I2
sg256
I0
sg10
V192.168.5.0
p1963
sg258
S''
sg259
I200
sg260
I0
sg261
V192.168.13.1
p1964
sg263
I24
sa(dp1965
g255
I2
sg256
I128
sg10
V192.168.4.0
p1966
sg258
S''
sg259
I200
sg260
I0
sg261
V192.168.5.1
p1967
sg263
I24
sa(dp1968
g255
I2
sg256
I192
sg10
V192.168.39.0
p1969
sg258
S''
sg259
I200
sg260
I0
sg261
V192.168.5.1
p1970
sg263
I24
sa(dp1971
g255
I2
sg256
I192
sg10
V192.168.7.0
p1972
sg258
S''
sg259
I200
sg260
I0
sg261
V192.168.5.1
p1973
sg263
I24
sa(dp1974
g255
I2
sg256
I192
sg10
V192.168.3.0
p1975
sg258
S''
sg259
I200
sg260
I0
sg261
V192.168.5.1
p1976
sg263
I24
sa(dp1977
g255
I2
sg256
I256
sg10
V192.168.79.0
p1978
sg258
S''
sg259
I200
sg260
I0
sg261
V192.168.5.1
p1979
sg263
I24
sa(dp1980
g255
I2
sg256
I256
sg10
V192.168.29.0
p1981
sg258
S''
sg259
I200
sg260
I0
sg261
V192.168.5.1
p1982
sg263
I24
sa(dp1983
g255
I2
sg256
I256
sg10
V192.168.27.0
p1984
sg258
S''
sg259
I200
sg260
I0
sg261
V192.168.5.1
p1985
sg263
I24
sa(dp1986
g255
I2
sg256
I256
sg10
V192.168.17.0
p1987
sg258
S''
sg259
I200
sg260
I0
sg261
V192.168.5.1
p1988
sg263
I24
sa(dp1989
g255
I2
sg256
I256
sg10
V192.168.12.0
p1990
sg258
S''
sg259
I200
sg260
I0
sg261
V192.168.5.1
p1991
sg263
I24
sa(dp1992
g255
I2
sg256
I256
sg10
V192.168.10.0
p1993
sg258
S''
sg259
I200
sg260
I0
sg261
V192.168.5.1
p1994
sg263
I24
sa(dp1995
g255
I2
sg256
I256
sg10
V192.168.9.0
p1996
sg258
S''
sg259
I200
sg260
I0
sg261
V192.168.5.1
p1997
sg263
I24
sa(dp1998
g255
I2
sg256
I256
sg10
V192.168.6.0
p1999
sg258
S''
sg259
I200
sg260
I0
sg261
V192.168.5.1
p2000
sg263
I24
sa(dp2001
g255
I2
sg256
I256
sg10
V192.168.2.0
p2002
sg258
S''
sg259
I200
sg260
I0
sg261
V192.168.5.1
p2003
sg263
I24
sa(dp2004
g255
I2
sg256
I257
sg10
V192.168.1.0
p2005
sg258
S''
sg259
I200
sg260
I0
sg261
V192.168.5.1
p2006
sg263
I24
sa(dp2007
g255
I2
sg256
I257
sg10
V192.168.99.99
p2008
sg258
S''
sg259
I200
sg260
I0
sg261
V192.168.5.1
p2009
sg263
I32
sa(dp2010
g255
I2
sg256
I0
sg10
V192.168.14.0
p2011
sg258
S''
sg259
I200
sg260
I0
sg261
V192.168.13.2
p2012
sg263
I24
sa(dp2013
g255
I2
sg256
I0
sg10
V192.168.31.0
p2014
sg258
S''
sg259
I200
sg260
I0
sg261
V192.168.13.2
p2015
sg263
I24
sa(dp2016
g255
I2
sg256
I3
sg10
V10.21.3.0
p2017
sg258
S''
sg259
I200
sg260
I0
sg261
V192.168.13.2
p2018
sg263
I24
sa(dp2019
g255
I0
sg256
I0
sg10
V192.168.23.0
p2020
sg258
S''
sg259
I200
sg260
I0
sg261
V192.168.13.2
p2021
sg263
I24
sa(dp2022
g255
I0
sg256
I0
sg10
V192.168.11.0
p2023
sg258
S''
sg259
I200
sg260
I0
sg261
V192.168.51.2
p2024
sg263
I24
sa(dp2025
g255
I2
sg256
I2
sg10
V192.168.41.0
p2026
sg258
S''
sg259
I200
sg260
I0
sg261
V192.168.13.2
p2027
sg263
I24
sa(dp2028
g255
I0
sg256
I0
sg10
V192.168.51.0
p2029
sg258
S''
sg259
I200
sg260
I0
sg261
V192.168.13.1
p2030
sg263
I24
sa(dp2031
g255
I0
sg256
I0
sg10
V192.168.23.0
p2032
sg258
S''
sg259
I100
sg260
I0
sg261
V192.168.11.2
p2033
sg263
I24
sa(dp2034
g255
I0
sg256
I0
sg10
V192.168.11.0
p2035
sg258
S''
sg259
I100
sg260
I0
sg261
V192.168.11.2
p2036
sg263
I24
sa(dp2037
g255
I2
sg256
I0
sg10
V192.168.12.0
p2038
sg258
S''
sg259
I100
sg260
I0
sg261
V192.168.11.2
p2039
sg263
I24
sa(dp2040
g255
I2
sg256
I74
sg10
V192.168.7.0
p2041
sg258
S''
sg259
I100
sg260
I0
sg261
V192.168.12.1
p2042
sg263
I24
sa(dp2043
g255
I0
sg256
I0
sg10
V192.168.51.0
p2044
sg258
S''
sg259
I200
sg260
I0
sg261
V192.168.13.1
p2045
sg263
I24
sa(dp2046
g255
I0
sg256
I0
sg10
V192.168.13.0
p2047
sg258
S''
sg259
I200
sg260
I0
sg261
V192.168.13.1
p2048
sg263
I24
sa(dp2049
g255
I2
sg256
I0
sg10
V192.168.5.0
p2050
sg258
S''
sg259
I200
sg260
I0
sg261
V192.168.13.1
p2051
sg263
I24
sa(dp2052
g255
I2
sg256
I128
sg10
V192.168.4.0
p2053
sg258
S''
sg259
I200
sg260
I0
sg261
V192.168.5.1
p2054
sg263
I24
sa(dp2055
g255
I2
sg256
I192
sg10
V192.168.39.0
p2056
sg258
S''
sg259
I200
sg260
I0
sg261
V192.168.5.1
p2057
sg263
I24
sa(dp2058
g255
I2
sg256
I192
sg10
V192.168.7.0
p2059
sg258
S''
sg259
I200
sg260
I0
sg261
V192.168.5.1
p2060
sg263
I24
sa(dp2061
g255
I2
sg256
I192
sg10
V192.168.3.0
p2062
sg258
S''
sg259
I200
sg260
I0
sg261
V192.168.5.1
p2063
sg263
I24
sa(dp2064
g255
I2
sg256
I256
sg10
V192.168.79.0
p2065
sg258
S''
sg259
I200
sg260
I0
sg261
V192.168.5.1
p2066
sg263
I24
sa(dp2067
g255
I2
sg256
I256
sg10
V192.168.29.0
p2068
sg258
S''
sg259
I200
sg260
I0
sg261
V192.168.5.1
p2069
sg263
I24
sa(dp2070
g255
I2
sg256
I256
sg10
V192.168.27.0
p2071
sg258
S''
sg259
I200
sg260
I0
sg261
V192.168.5.1
p2072
sg263
I24
sa(dp2073
g255
I2
sg256
I256
sg10
V192.168.17.0
p2074
sg258
S''
sg259
I200
sg260
I0
sg261
V192.168.5.1
p2075
sg263
I24
sa(dp2076
g255
I2
sg256
I256
sg10
V192.168.12.0
p2077
sg258
S''
sg259
I200
sg260
I0
sg261
V192.168.5.1
p2078
sg263
I24
sa(dp2079
g255
I2
sg256
I256
sg10
V192.168.10.0
p2080
sg258
S''
sg259
I200
sg260
I0
sg261
V192.168.5.1
p2081
sg263
I24
sa(dp2082
g255
I2
sg256
I256
sg10
V192.168.9.0
p2083
sg258
S''
sg259
I200
sg260
I0
sg261
V192.168.5.1
p2084
sg263
I24
sa(dp2085
g255
I2
sg256
I256
sg10
V192.168.6.0
p2086
sg258
S''
sg259
I200
sg260
I0
sg261
V192.168.5.1
p2087
sg263
I24
sa(dp2088
g255
I2
sg256
I256
sg10
V192.168.2.0
p2089
sg258
S''
sg259
I200
sg260
I0
sg261
V192.168.5.1
p2090
sg263
I24
sa(dp2091
g255
I2
sg256
I257
sg10
V192.168.1.0
p2092
sg258
S''
sg259
I200
sg260
I0
sg261
V192.168.5.1
p2093
sg263
I24
sa(dp2094
g255
I2
sg256
I257
sg10
V192.168.99.99
p2095
sg258
S''
sg259
I200
sg260
I0
sg261
V192.168.5.1
p2096
sg263
I32
sa(dp2097
g255
I2
sg256
I0
sg10
V192.168.14.0
p2098
sg258
S''
sg259
I200
sg260
I0
sg261
V192.168.13.2
p2099
sg263
I24
sa(dp2100
g255
I2
sg256
I0
sg10
V192.168.31.0
p2101
sg258
S''
sg259
I200
sg260
I0
sg261
V192.168.13.2
p2102
sg263
I24
sa(dp2103
g255
I2
sg256
I3
sg10
V10.21.3.0
p2104
sg258
S''
sg259
I200
sg260
I0
sg261
V192.168.13.2
p2105
sg263
I24
sa(dp2106
g255
I0
sg256
I0
sg10
V192.168.23.0
p2107
sg258
S''
sg259
I200
sg260
I0
sg261
V192.168.13.2
p2108
sg263
I24
sa(dp2109
g255
I0
sg256
I0
sg10
V192.168.11.0
p2110
sg258
S''
sg259
I200
sg260
I0
sg261
V192.168.51.2
p2111
sg263
I24
sa(dp2112
g255
I2
sg256
I2
sg10
V192.168.41.0
p2113
sg258
S''
sg259
I200
sg260
I0
sg261
V192.168.13.2
p2114
sg263
I24
sa(dp2115
g255
I0
sg256
I0
sg10
V192.168.23.0
p2116
sg258
S''
sg259
I100
sg260
I0
sg261
V192.168.11.2
p2117
sg263
I24
sa(dp2118
g255
I0
sg256
I0
sg10
V192.168.11.0
p2119
sg258
S''
sg259
I100
sg260
I0
sg261
V192.168.11.2
p2120
sg263
I24
sa(dp2121
g255
I2
sg256
I0
sg10
V192.168.12.0
p2122
sg258
S''
sg259
I100
sg260
I0
sg261
V192.168.11.2
p2123
sg263
I24
sa(dp2124
g255
I2
sg256
I74
sg10
V192.168.7.0
p2125
sg258
S''
sg259
I100
sg260
I0
sg261
V192.168.12.1
p2126
sg263
I24
sa(dp2127
g255
I2
sg256
I128
sg10
V192.168.79.0
p2128
sg258
S''
sg259
I100
sg260
I0
sg261
V192.168.12.1
p2129
sg263
I24
sa(dp2130
g255
I2
sg256
I128
sg10
V192.168.27.0
p2131
sg258
S''
sg259
I100
sg260
I0
sg261
V192.168.12.1
p2132
sg263
I24
sa(dp2133
g255
I2
sg256
I128
sg10
V192.168.17.0
p2134
sg258
S''
sg259
I100
sg260
I0
sg261
V192.168.12.1
p2135
sg263
I24
sa(dp2136
g255
I2
sg256
I129
sg10
V192.168.1.0
p2137
sg258
S''
sg259
I100
sg260
I0
sg261
V192.168.12.1
p2138
sg263
I24
sa(dp2139
g255
I2
sg256
I129
sg10
V192.168.99.99
p2140
sg258
S''
sg259
I100
sg260
I0
sg261
V192.168.12.1
p2141
sg263
I32
sa(dp2142
g255
I2
sg256
I138
sg10
V192.168.39.0
p2143
sg258
S''
sg259
I100
sg260
I0
sg261
V192.168.12.1
p2144
sg263
I24
sa(dp2145
g255
I2
sg256
I138
sg10
V192.168.4.0
p2146
sg258
S''
sg259
I100
sg260
I0
sg261
V192.168.12.1
p2147
sg263
I24
sa(dp2148
g255
I2
sg256
I138
sg10
V192.168.3.0
p2149
sg258
S''
sg259
I100
sg260
I0
sg261
V192.168.12.1
p2150
sg263
I24
sa(dp2151
g255
I2
sg256
I192
sg10
V192.168.29.0
p2152
sg258
S''
sg259
I100
sg260
I0
sg261
V192.168.12.1
p2153
sg263
I24
sa(dp2154
g255
I2
sg256
I192
sg10
V192.168.10.0
p2155
sg258
S''
sg259
I100
sg260
I0
sg261
V192.168.12.1
p2156
sg263
I24
sa(dp2157
g255
I2
sg256
I192
sg10
V192.168.9.0
p2158
sg258
S''
sg259
I100
sg260
I0
sg261
V192.168.12.1
p2159
sg263
I24
sa(dp2160
g255
I2
sg256
I192
sg10
V192.168.6.0
p2161
sg258
S''
sg259
I100
sg260
I0
sg261
V192.168.12.1
p2162
sg263
I24
sa(dp2163
g255
I2
sg256
I192
sg10
V192.168.2.0
p2164
sg258
S''
sg259
I100
sg260
I0
sg261
V192.168.12.1
p2165
sg263
I24
sa(dp2166
g255
I2
sg256
I202
sg10
V192.168.5.0
p2167
sg258
S''
sg259
I100
sg260
I0
sg261
V192.168.12.1
p2168
sg263
I24
sa(dp2169
g255
I2
sg256
I0
sg10
V192.168.14.0
p2170
sg258
S''
sg259
I100
sg260
I0
sg261
V192.168.23.2
p2171
sg263
I24
sa(dp2172
g255
I2
sg256
I0
sg10
V192.168.31.0
p2173
sg258
S''
sg259
I100
sg260
I0
sg261
V192.168.11.1
p2174
sg263
I24
sa(dp2175
g255
I2
sg256
I0
sg10
V192.168.41.0
p2176
sg258
S''
sg259
I100
sg260
I0
sg261
V192.168.11.1
p2177
sg263
I24
sa(dp2178
g255
I2
sg256
I2
sg10
V10.21.3.0
p2179
sg258
S''
sg259
I100
sg260
I0
sg261
V192.168.11.1
p2180
sg263
I24
sa(dp2181
g255
I0
sg256
I0
sg10
V192.168.13.0
p2182
sg258
S''
sg259
I100
sg260
I0
sg261
V192.168.23.2
p2183
sg263
I24
sa(dp2184
g255
I0
sg256
I0
sg10
V192.168.51.0
p2185
sg258
S''
sg259
I100
sg260
I0
sg261
V192.168.11.1
p2186
sg263
I24
sasS'ExternalLsa'
p2187
(lp2188
(dp2189
S'externalType'
p2190
I2
sg106
I0
sS'advRouter'
p2191
V192.168.5.2
p2192
sS'networkMask'
p2193
V255.255.255.0
p2194
sS'forwardingAddress'
p2195
V0.0.0.0
p2196
sS'linkStateId'
p2197
V192.168.13.0
p2198
sa(dp2199
g2190
I2
sg106
I0
sg2191
V192.168.5.2
p2200
sg2193
V255.255.255.0
p2201
sg2195
V0.0.0.0
p2202
sg2197
V192.168.51.0
p2203
sa(dp2204
g2190
I2
sg106
I0
sg2191
V192.168.23.1
p2205
sg2193
V255.255.255.0
p2206
sg2195
V0.0.0.0
p2207
sg2197
V192.168.11.0
p2208
sa(dp2209
g2190
I2
sg106
I0
sg2191
V192.168.23.1
p2210
sg2193
V255.255.255.0
p2211
sg2195
V0.0.0.0
p2212
sg2197
V192.168.23.0
p2213
sa(dp2214
g2190
I2
sg106
I0
sg2191
V192.168.5.2
p2215
sg2193
V255.255.255.0
p2216
sg2195
V0.0.0.0
p2217
sg2197
V10.21.3.0
p2218
sa(dp2219
g2190
I2
sg106
I0
sg2191
V192.168.5.2
p2220
sg2193
V255.255.255.0
p2221
sg2195
V0.0.0.0
p2222
sg2197
V192.168.11.0
p2223
sa(dp2224
g2190
I2
sg106
I0
sg2191
V192.168.5.2
p2225
sg2193
V255.255.255.0
p2226
sg2195
V0.0.0.0
p2227
sg2197
V192.168.14.0
p2228
sa(dp2229
g2190
I2
sg106
I0
sg2191
V192.168.5.2
p2230
sg2193
V255.255.255.0
p2231
sg2195
V0.0.0.0
p2232
sg2197
V192.168.31.0
p2233
sa(dp2234
g2190
I2
sg106
I0
sg2191
V192.168.5.2
p2235
sg2193
V255.255.255.0
p2236
sg2195
V0.0.0.0
p2237
sg2197
V192.168.41.0
p2238
sa(dp2239
g2190
I2
sg106
I0
sg2191
V192.168.23.1
p2240
sg2193
V255.255.255.0
p2241
sg2195
V0.0.0.0
p2242
sg2197
V10.21.3.0
p2243
sa(dp2244
g2190
I2
sg106
I0
sg2191
V192.168.23.1
p2245
sg2193
V255.255.255.0
p2246
sg2195
V0.0.0.0
p2247
sg2197
V192.168.14.0
p2248
sa(dp2249
g2190
I2
sg106
I0
sg2191
V192.168.23.1
p2250
sg2193
V255.255.255.0
p2251
sg2195
V0.0.0.0
p2252
sg2197
V192.168.31.0
p2253
sa(dp2254
g2190
I2
sg106
I0
sg2191
V192.168.23.1
p2255
sg2193
V255.255.255.0
p2256
sg2195
V0.0.0.0
p2257
sg2197
V192.168.41.0
p2258
sa(dp2259
g2190
I2
sg106
I0
sg2191
V192.168.23.1
p2260
sg2193
V255.255.255.0
p2261
sg2195
V0.0.0.0
p2262
sg2197
V192.168.51.0
p2263
sa(dp2264
g2190
I2
sg106
I0
sg2191
V192.168.23.1
p2265
sg2193
V255.255.255.0
p2266
sg2195
V0.0.0.0
p2267
sg2197
V192.168.13.0
p2268
sa(dp2269
g2190
I2
sg106
I0
sg2191
V192.168.5.2
p2270
sg2193
V255.255.255.0
p2271
sg2195
V0.0.0.0
p2272
sg2197
V192.168.23.0
p2273
sassa(dp2274
g3
(dp2275
g5
(lp2276
sg97
(lp2277
sg225
(lp2278
(dp2279
g228
I2901
sg106
I20
sg107
V192.168.12.2
p2280
sg11
V255.255.255.0
p2281
sg8
V192.168.41.1
p2282
sg110
V192.168.11.1
p2283
sg233
I1
sa(dp2284
g228
I2902
sg106
I30
sg107
V192.168.12.2
p2285
sg11
V255.255.255.0
p2286
sg8
V192.168.13.2
p2287
sg110
V192.168.23.2
p2288
sg233
I1
sa(dp2289
g228
I2903
sg106
I40
sg107
V192.168.5.2
p2290
sg11
V255.255.255.0
p2291
sg8
V192.168.13.2
p2292
sg110
V192.168.13.2
p2293
sg233
I1
sa(dp2294
g228
I2904
sg106
I50
sg107
V192.168.5.2
p2295
sg11
V255.255.255.0
p2296
sg8
V192.168.41.1
p2297
sg110
V192.168.51.2
p2298
sg233
I1
sassg249
I2
sg250
(dp2299
g252
(lp2300
(dp2301
g255
I2
sg256
I3
sg10
V10.0.0.0
p2302
sg258
S''
sg259
I100
sg260
I0
sg261
V192.168.31.1
p2303
sg263
I8
sa(dp2304
g255
I2
sg256
I2
sg10
V192.168.41.0
p2305
sg258
S''
sg259
I100
sg260
I0
sg261
V192.168.31.1
p2306
sg263
I24
sa(dp2307
g255
I2
sg256
I0
sg10
V192.168.14.0
p2308
sg258
S''
sg259
I100
sg260
I0
sg261
V192.168.23.2
p2309
sg263
I24
sa(dp2310
g255
I0
sg256
I0
sg10
V192.168.23.0
p2311
sg258
S''
sg259
I100
sg260
I0
sg261
V192.168.23.2
p2312
sg263
I24
sa(dp2313
g255
I2
sg256
I0
sg10
V192.168.31.0
p2314
sg258
S''
sg259
I100
sg260
I0
sg261
V192.168.23.2
p2315
sg263
I24
sa(dp2316
g255
I2
sg256
I0
sg10
V192.168.13.0
p2317
sg258
S''
sg259
I100
sg260
I0
sg261
V192.168.13.1
p2318
sg263
I24
sa(dp2319
g255
I2
sg256
I0
sg10
V192.168.5.0
p2320
sg258
S''
sg259
I100
sg260
I0
sg261
V192.168.13.1
p2321
sg263
I24
sa(dp2322
g255
I2
sg256
I0
sg10
V192.168.12.0
p2323
sg258
S''
sg259
I100
sg260
I0
sg261
V192.168.23.1
p2324
sg263
I24
sa(dp2325
g255
I0
sg256
I0
sg10
V192.168.11.0
p2326
sg258
S''
sg259
I100
sg260
I0
sg261
V192.168.23.1
p2327
sg263
I24
sa(dp2328
g255
I2
sg256
I74
sg10
V192.168.7.0
p2329
sg258
S''
sg259
I100
sg260
I0
sg261
V192.168.23.1
p2330
sg263
I24
sa(dp2331
g255
I2
sg256
I128
sg10
V192.168.4.0
p2332
sg258
S''
sg259
I100
sg260
I0
sg261
V192.168.13.1
p2333
sg263
I24
sa(dp2334
g255
I2
sg256
I128
sg10
V192.168.27.0
p2335
sg258
S''
sg259
I100
sg260
I0
sg261
V192.168.23.1
p2336
sg263
I24
sa(dp2337
g255
I2
sg256
I128
sg10
V192.168.79.0
p2338
sg258
S''
sg259
I100
sg260
I0
sg261
V192.168.23.1
p2339
sg263
I24
sa(dp2340
g255
I2
sg256
I128
sg10
V192.168.17.0
p2341
sg258
S''
sg259
I100
sg260
I0
sg261
V192.168.23.1
p2342
sg263
I24
sa(dp2343
g255
I2
sg256
I129
sg10
V192.168.1.0
p2344
sg258
S''
sg259
I100
sg260
I0
sg261
V192.168.23.1
p2345
sg263
I24
sa(dp2346
g255
I2
sg256
I129
sg10
V192.168.99.99
p2347
sg258
S''
sg259
I100
sg260
I0
sg261
V192.168.23.1
p2348
sg263
I32
sa(dp2349
g255
I2
sg256
I138
sg10
V192.168.39.0
p2350
sg258
S''
sg259
I100
sg260
I0
sg261
V192.168.23.1
p2351
sg263
I24
sa(dp2352
g255
I2
sg256
I138
sg10
V192.168.3.0
p2353
sg258
S''
sg259
I100
sg260
I0
sg261
V192.168.23.1
p2354
sg263
I24
sa(dp2355
g255
I2
sg256
I192
sg10
V192.168.29.0
p2356
sg258
S''
sg259
I100
sg260
I0
sg261
V192.168.23.1
p2357
sg263
I24
sa(dp2358
g255
I2
sg256
I192
sg10
V192.168.9.0
p2359
sg258
S''
sg259
I100
sg260
I0
sg261
V192.168.23.1
p2360
sg263
I24
sa(dp2361
g255
I2
sg256
I192
sg10
V192.168.6.0
p2362
sg258
S''
sg259
I100
sg260
I0
sg261
V192.168.23.1
p2363
sg263
I24
sa(dp2364
g255
I2
sg256
I192
sg10
V192.168.2.0
p2365
sg258
S''
sg259
I100
sg260
I0
sg261
V192.168.23.1
p2366
sg263
I24
sa(dp2367
g255
I2
sg256
I2
sg10
V10.0.0.0
p2368
sg258
S''
sg259
I100
sg260
I0
sg261
V192.168.41.2
p2369
sg263
I8
sa(dp2370
g255
I2
sg256
I2
sg10
V192.168.23.0
p2371
sg258
S''
sg259
I100
sg260
I0
sg261
V192.168.31.2
p2372
sg263
I24
sa(dp2373
g255
I2
sg256
I0
sg10
V192.168.41.0
p2374
sg258
S''
sg259
I100
sg260
I0
sg261
V192.168.11.1
p2375
sg263
I24
sa(dp2376
g255
I2
sg256
I0
sg10
V192.168.31.0
p2377
sg258
S''
sg259
I100
sg260
I0
sg261
V192.168.11.1
p2378
sg263
I24
sa(dp2379
g255
I2
sg256
I65
sg10
V192.168.14.0
p2380
sg258
S''
sg259
I100
sg260
I0
sg261
V192.168.31.2
p2381
sg263
I24
sa(dp2382
g255
I2
sg256
I0
sg10
V192.168.13.0
p2383
sg258
S''
sg259
I100
sg260
I0
sg261
V192.168.51.1
p2384
sg263
I24
sa(dp2385
g255
I2
sg256
I0
sg10
V192.168.5.0
p2386
sg258
S''
sg259
I100
sg260
I0
sg261
V192.168.51.1
p2387
sg263
I24
sa(dp2388
g255
I0
sg256
I0
sg10
V192.168.11.0
p2389
sg258
S''
sg259
I100
sg260
I0
sg261
V192.168.11.2
p2390
sg263
I24
sa(dp2391
g255
I2
sg256
I0
sg10
V192.168.12.0
p2392
sg258
S''
sg259
I100
sg260
I0
sg261
V192.168.11.2
p2393
sg263
I24
sa(dp2394
g255
I2
sg256
I74
sg10
V192.168.7.0
p2395
sg258
S''
sg259
I100
sg260
I0
sg261
V192.168.11.2
p2396
sg263
I24
sa(dp2397
g255
I2
sg256
I128
sg10
V192.168.4.0
p2398
sg258
S''
sg259
I100
sg260
I0
sg261
V192.168.51.1
p2399
sg263
I24
sa(dp2400
g255
I2
sg256
I128
sg10
V192.168.27.0
p2401
sg258
S''
sg259
I100
sg260
I0
sg261
V192.168.11.2
p2402
sg263
I24
sa(dp2403
g255
I2
sg256
I128
sg10
V192.168.79.0
p2404
sg258
S''
sg259
I100
sg260
I0
sg261
V192.168.11.2
p2405
sg263
I24
sa(dp2406
g255
I2
sg256
I128
sg10
V192.168.17.0
p2407
sg258
S''
sg259
I100
sg260
I0
sg261
V192.168.11.2
p2408
sg263
I24
sa(dp2409
g255
I2
sg256
I129
sg10
V192.168.1.0
p2410
sg258
S''
sg259
I100
sg260
I0
sg261
V192.168.11.2
p2411
sg263
I24
sa(dp2412
g255
I2
sg256
I129
sg10
V192.168.99.99
p2413
sg258
S''
sg259
I100
sg260
I0
sg261
V192.168.11.2
p2414
sg263
I32
sa(dp2415
g255
I2
sg256
I138
sg10
V192.168.39.0
p2416
sg258
S''
sg259
I100
sg260
I0
sg261
V192.168.11.2
p2417
sg263
I24
sa(dp2418
g255
I2
sg256
I138
sg10
V192.168.3.0
p2419
sg258
S''
sg259
I100
sg260
I0
sg261
V192.168.11.2
p2420
sg263
I24
sa(dp2421
g255
I2
sg256
I192
sg10
V192.168.29.0
p2422
sg258
S''
sg259
I100
sg260
I0
sg261
V192.168.11.2
p2423
sg263
I24
sa(dp2424
g255
I2
sg256
I192
sg10
V192.168.9.0
p2425
sg258
S''
sg259
I100
sg260
I0
sg261
V192.168.11.2
p2426
sg263
I24
sa(dp2427
g255
I2
sg256
I192
sg10
V192.168.6.0
p2428
sg258
S''
sg259
I100
sg260
I0
sg261
V192.168.11.2
p2429
sg263
I24
sa(dp2430
g255
I2
sg256
I192
sg10
V192.168.2.0
p2431
sg258
S''
sg259
I100
sg260
I0
sg261
V192.168.11.2
p2432
sg263
I24
sa(dp2433
g255
I2
sg256
I193
sg10
V192.168.1.0
p2434
sg258
S''
sg259
I100
sg260
I0
sg261
V192.168.51.1
p2435
sg263
I24
sa(dp2436
g255
I2
sg256
I193
sg10
V192.168.1.0
p2437
sg258
S''
sg259
I100
sg260
I0
sg261
V192.168.13.1
p2438
sg263
I24
sa(dp2439
g255
I2
sg256
I129
sg10
V192.168.1.0
p2440
sg258
S''
sg259
I100
sg260
I0
sg261
V192.168.11.2
p2441
sg263
I24
sa(dp2442
g255
I2
sg256
I129
sg10
V192.168.1.0
p2443
sg258
S''
sg259
I100
sg260
I0
sg261
V192.168.23.1
p2444
sg263
I24
sa(dp2445
g255
I2
sg256
I129
sg10
V192.168.1.0
p2446
sg258
S''
sg259
I100
sg260
I0
sg261
V192.168.11.2
p2447
sg263
I24
sa(dp2448
g255
I2
sg256
I129
sg10
V192.168.1.0
p2449
sg258
S''
sg259
I100
sg260
I0
sg261
V192.168.23.1
p2450
sg263
I24
sa(dp2451
g255
I2
sg256
I192
sg10
V192.168.10.0
p2452
sg258
S''
sg259
I100
sg260
I0
sg261
V192.168.11.2
p2453
sg263
I24
sa(dp2454
g255
I2
sg256
I192
sg10
V192.168.10.0
p2455
sg258
S''
sg259
I100
sg260
I0
sg261
V192.168.23.1
p2456
sg263
I24
sa(dp2457
g255
I2
sg256
I193
sg10
V192.168.1.0
p2458
sg258
S''
sg259
I100
sg260
I0
sg261
V192.168.51.1
p2459
sg263
I24
sa(dp2460
g255
I2
sg256
I193
sg10
V192.168.1.0
p2461
sg258
S''
sg259
I100
sg260
I0
sg261
V192.168.13.1
p2462
sg263
I24
sa(dp2463
g255
I2
sg256
I129
sg10
V192.168.1.0
p2464
sg258
S''
sg259
I100
sg260
I0
sg261
V192.168.11.2
p2465
sg263
I24
sa(dp2466
g255
I2
sg256
I129
sg10
V192.168.1.0
p2467
sg258
S''
sg259
I100
sg260
I0
sg261
V192.168.23.1
p2468
sg263
I24
sa(dp2469
g255
I2
sg256
I138
sg10
V192.168.13.0
p2470
sg258
S''
sg259
I100
sg260
I0
sg261
V192.168.23.1
p2471
sg263
I24
sa(dp2472
g255
I2
sg256
I138
sg10
V192.168.13.0
p2473
sg258
S''
sg259
I100
sg260
I0
sg261
V192.168.11.2
p2474
sg263
I24
sa(dp2475
g255
I2
sg256
I0
sg10
V192.168.14.0
p2476
sg258
S''
sg259
I100
sg260
I0
sg261
V192.168.23.2
p2477
sg263
I24
sa(dp2478
g255
I2
sg256
I65
sg10
V192.168.14.0
p2479
sg258
S''
sg259
I100
sg260
I0
sg261
V192.168.41.2
p2480
sg263
I24
sa(dp2481
g255
I2
sg256
I0
sg10
V192.168.14.0
p2482
sg258
S''
sg259
I100
sg260
I0
sg261
V192.168.23.2
p2483
sg263
I24
sa(dp2484
g255
I2
sg256
I2
sg10
V10.0.0.0
p2485
sg258
S''
sg259
I100
sg260
I0
sg261
V192.168.41.2
p2486
sg263
I8
sa(dp2487
g255
I2
sg256
I65
sg10
V192.168.41.0
p2488
sg258
S''
sg259
I100
sg260
I0
sg261
V192.168.14.2
p2489
sg263
I24
sa(dp2490
g255
I2
sg256
I65
sg10
V10.0.0.0
p2491
sg258
S''
sg259
I100
sg260
I0
sg261
V192.168.14.2
p2492
sg263
I8
sa(dp2493
g255
I0
sg256
I0
sg10
V192.168.51.0
p2494
sg258
S''
sg259
I100
sg260
I0
sg261
V192.168.11.1
p2495
sg263
I24
sa(dp2496
g255
I0
sg256
I0
sg10
V192.168.13.0
p2497
sg258
S''
sg259
I100
sg260
I0
sg261
V192.168.51.1
p2498
sg263
I24
sa(dp2499
g255
I0
sg256
I0
sg10
V192.168.13.0
p2500
sg258
S''
sg259
I100
sg260
I0
sg261
V192.168.13.1
p2501
sg263
I24
sa(dp2502
g255
I2
sg256
I257
sg10
V192.168.1.0
p2503
sg258
S''
sg259
I100
sg260
I0
sg261
V192.168.13.1
p2504
sg263
I24
sa(dp2505
g255
I2
sg256
I257
sg10
V192.168.1.0
p2506
sg258
S''
sg259
I100
sg260
I0
sg261
V192.168.51.1
p2507
sg263
I24
sa(dp2508
g255
I2
sg256
I129
sg10
V192.168.1.0
p2509
sg258
S''
sg259
I100
sg260
I0
sg261
V192.168.11.2
p2510
sg263
I24
sa(dp2511
g255
I2
sg256
I129
sg10
V192.168.1.0
p2512
sg258
S''
sg259
I100
sg260
I0
sg261
V192.168.23.1
p2513
sg263
I24
sa(dp2514
g255
I2
sg256
I2
sg10
V10.21.3.0
p2515
sg258
S''
sg259
I100
sg260
I0
sg261
V192.168.41.2
p2516
sg263
I24
sa(dp2517
g255
I2
sg256
I3
sg10
V10.21.3.0
p2518
sg258
S''
sg259
I100
sg260
I0
sg261
V192.168.31.1
p2519
sg263
I24
sa(dp2520
g255
I2
sg256
I129
sg10
V192.168.1.0
p2521
sg258
S''
sg259
I100
sg260
I0
sg261
V192.168.11.2
p2522
sg263
I24
sa(dp2523
g255
I2
sg256
I129
sg10
V192.168.1.0
p2524
sg258
S''
sg259
I100
sg260
I0
sg261
V192.168.23.1
p2525
sg263
I24
sa(dp2526
g255
I2
sg256
I3
sg10
V10.21.3.0
p2527
sg258
S''
sg259
I100
sg260
I0
sg261
V192.168.31.1
p2528
sg263
I24
sa(dp2529
g255
I2
sg256
I257
sg10
V192.168.1.0
p2530
sg258
S''
sg259
I100
sg260
I0
sg261
V192.168.13.1
p2531
sg263
I24
sa(dp2532
g255
I2
sg256
I257
sg10
V192.168.1.0
p2533
sg258
S''
sg259
I100
sg260
I0
sg261
V192.168.51.1
p2534
sg263
I24
sa(dp2535
g255
I2
sg256
I129
sg10
V192.168.1.0
p2536
sg258
S''
sg259
I100
sg260
I0
sg261
V192.168.11.2
p2537
sg263
I24
sa(dp2538
g255
I2
sg256
I129
sg10
V192.168.1.0
p2539
sg258
S''
sg259
I100
sg260
I0
sg261
V192.168.23.1
p2540
sg263
I24
sa(dp2541
g255
I2
sg256
I2
sg10
V10.21.3.0
p2542
sg258
S''
sg259
I100
sg260
I0
sg261
V192.168.41.2
p2543
sg263
I24
sa(dp2544
g255
I2
sg256
I2
sg10
V10.21.3.0
p2545
sg258
S''
sg259
I100
sg260
I0
sg261
V192.168.41.2
p2546
sg263
I24
sa(dp2547
g255
I2
sg256
I3
sg10
V10.21.3.0
p2548
sg258
S''
sg259
I100
sg260
I0
sg261
V192.168.31.1
p2549
sg263
I24
sa(dp2550
g255
I2
sg256
I2
sg10
V10.21.3.0
p2551
sg258
S''
sg259
I100
sg260
I0
sg261
V192.168.41.2
p2552
sg263
I24
sa(dp2553
g255
I2
sg256
I3
sg10
V10.21.3.0
p2554
sg258
S''
sg259
I100
sg260
I0
sg261
V192.168.31.1
p2555
sg263
I24
sa(dp2556
g255
I2
sg256
I2
sg10
V10.21.3.0
p2557
sg258
S''
sg259
I100
sg260
I0
sg261
V192.168.41.2
p2558
sg263
I24
sa(dp2559
g255
I2
sg256
I257
sg10
V192.168.1.0
p2560
sg258
S''
sg259
I100
sg260
I0
sg261
V192.168.51.1
p2561
sg263
I24
sa(dp2562
g255
I2
sg256
I257
sg10
V192.168.1.0
p2563
sg258
S''
sg259
I100
sg260
I0
sg261
V192.168.13.1
p2564
sg263
I24
sa(dp2565
g255
I2
sg256
I129
sg10
V192.168.1.0
p2566
sg258
S''
sg259
I100
sg260
I0
sg261
V192.168.11.2
p2567
sg263
I24
sa(dp2568
g255
I2
sg256
I129
sg10
V192.168.1.0
p2569
sg258
S''
sg259
I100
sg260
I0
sg261
V192.168.23.1
p2570
sg263
I24
sa(dp2571
g255
I2
sg256
I257
sg10
V192.168.1.0
p2572
sg258
S''
sg259
I100
sg260
I0
sg261
V192.168.51.1
p2573
sg263
I24
sa(dp2574
g255
I2
sg256
I129
sg10
V192.168.1.0
p2575
sg258
S''
sg259
I100
sg260
I0
sg261
V192.168.11.2
p2576
sg263
I24
sa(dp2577
g255
I2
sg256
I257
sg10
V192.168.1.0
p2578
sg258
S''
sg259
I100
sg260
I0
sg261
V192.168.13.1
p2579
sg263
I24
sa(dp2580
g255
I2
sg256
I129
sg10
V192.168.1.0
p2581
sg258
S''
sg259
I100
sg260
I0
sg261
V192.168.23.1
p2582
sg263
I24
sa(dp2583
g255
I2
sg256
I2
sg10
V10.21.3.0
p2584
sg258
S''
sg259
I100
sg260
I0
sg261
V192.168.41.2
p2585
sg263
I24
sa(dp2586
g255
I2
sg256
I3
sg10
V10.21.3.0
p2587
sg258
S''
sg259
I100
sg260
I0
sg261
V192.168.31.1
p2588
sg263
I24
sa(dp2589
g255
I2
sg256
I257
sg10
V192.168.1.0
p2590
sg258
S''
sg259
I100
sg260
I0
sg261
V192.168.51.1
p2591
sg263
I24
sa(dp2592
g255
I2
sg256
I129
sg10
V192.168.1.0
p2593
sg258
S''
sg259
I100
sg260
I0
sg261
V192.168.11.2
p2594
sg263
I24
sa(dp2595
g255
I2
sg256
I257
sg10
V192.168.1.0
p2596
sg258
S''
sg259
I100
sg260
I0
sg261
V192.168.13.1
p2597
sg263
I24
sa(dp2598
g255
I2
sg256
I129
sg10
V192.168.1.0
p2599
sg258
S''
sg259
I100
sg260
I0
sg261
V192.168.23.1
p2600
sg263
I24
sa(dp2601
g255
I2
sg256
I257
sg10
V192.168.1.0
p2602
sg258
S''
sg259
I100
sg260
I0
sg261
V192.168.51.1
p2603
sg263
I24
sa(dp2604
g255
I2
sg256
I257
sg10
V192.168.1.0
p2605
sg258
S''
sg259
I100
sg260
I0
sg261
V192.168.13.1
p2606
sg263
I24
sa(dp2607
g255
I2
sg256
I129
sg10
V192.168.1.0
p2608
sg258
S''
sg259
I100
sg260
I0
sg261
V192.168.11.2
p2609
sg263
I24
sa(dp2610
g255
I2
sg256
I129
sg10
V192.168.1.0
p2611
sg258
S''
sg259
I100
sg260
I0
sg261
V192.168.23.1
p2612
sg263
I24
sa(dp2613
g255
I2
sg256
I3
sg10
V10.21.3.0
p2614
sg258
S''
sg259
I100
sg260
I0
sg261
V192.168.31.1
p2615
sg263
I24
sa(dp2616
g255
I2
sg256
I2
sg10
V10.21.3.0
p2617
sg258
S''
sg259
I100
sg260
I0
sg261
V192.168.41.2
p2618
sg263
I24
sa(dp2619
g255
I2
sg256
I129
sg10
V192.168.1.0
p2620
sg258
S''
sg259
I100
sg260
I0
sg261
V192.168.11.2
p2621
sg263
I24
sa(dp2622
g255
I2
sg256
I129
sg10
V192.168.1.0
p2623
sg258
S''
sg259
I100
sg260
I0
sg261
V192.168.23.1
p2624
sg263
I24
sa(dp2625
g255
I2
sg256
I129
sg10
V192.168.1.0
p2626
sg258
S''
sg259
I100
sg260
I0
sg261
V192.168.11.2
p2627
sg263
I24
sa(dp2628
g255
I2
sg256
I129
sg10
V192.168.1.0
p2629
sg258
S''
sg259
I100
sg260
I0
sg261
V192.168.23.1
p2630
sg263
I24
sa(dp2631
g255
I2
sg256
I257
sg10
V192.168.1.0
p2632
sg258
S''
sg259
I100
sg260
I0
sg261
V192.168.51.1
p2633
sg263
I24
sa(dp2634
g255
I2
sg256
I257
sg10
V192.168.1.0
p2635
sg258
S''
sg259
I100
sg260
I0
sg261
V192.168.13.1
p2636
sg263
I24
sa(dp2637
g255
I2
sg256
I129
sg10
V192.168.1.0
p2638
sg258
S''
sg259
I100
sg260
I0
sg261
V192.168.11.2
p2639
sg263
I24
sa(dp2640
g255
I2
sg256
I129
sg10
V192.168.1.0
p2641
sg258
S''
sg259
I100
sg260
I0
sg261
V192.168.23.1
p2642
sg263
I24
sa(dp2643
g255
I2
sg256
I257
sg10
V192.168.1.0
p2644
sg258
S''
sg259
I100
sg260
I0
sg261
V192.168.51.1
p2645
sg263
I24
sa(dp2646
g255
I2
sg256
I257
sg10
V192.168.1.0
p2647
sg258
S''
sg259
I100
sg260
I0
sg261
V192.168.13.1
p2648
sg263
I24
sa(dp2649
g255
I2
sg256
I129
sg10
V192.168.1.0
p2650
sg258
S''
sg259
I100
sg260
I0
sg261
V192.168.11.2
p2651
sg263
I24
sa(dp2652
g255
I2
sg256
I129
sg10
V192.168.1.0
p2653
sg258
S''
sg259
I100
sg260
I0
sg261
V192.168.23.1
p2654
sg263
I24
sa(dp2655
g255
I2
sg256
I2
sg10
V10.21.3.0
p2656
sg258
S''
sg259
I100
sg260
I0
sg261
V192.168.41.2
p2657
sg263
I24
sa(dp2658
g255
I2
sg256
I257
sg10
V192.168.1.0
p2659
sg258
S''
sg259
I100
sg260
I0
sg261
V192.168.51.1
p2660
sg263
I24
sa(dp2661
g255
I2
sg256
I257
sg10
V192.168.1.0
p2662
sg258
S''
sg259
I100
sg260
I0
sg261
V192.168.13.1
p2663
sg263
I24
sa(dp2664
g255
I0
sg256
I0
sg10
V192.168.23.0
p2665
sg258
S''
sg259
I100
sg260
I0
sg261
V192.168.11.2
p2666
sg263
I24
sa(dp2667
g255
I0
sg256
I0
sg10
V192.168.51.0
p2668
sg258
S''
sg259
I100
sg260
I0
sg261
V192.168.13.1
p2669
sg263
I24
sa(dp2670
g255
I0
sg256
I0
sg10
V192.168.11.0
p2671
sg258
S''
sg259
I100
sg260
I0
sg261
V192.168.11.1
p2672
sg263
I24
sa(dp2673
g255
I0
sg256
I0
sg10
V192.168.13.0
p2674
sg258
S''
sg259
I100
sg260
I0
sg261
V192.168.23.2
p2675
sg263
I24
sa(dp2676
g255
I2
sg256
I2
sg10
V10.21.3.0
p2677
sg258
S''
sg259
I100
sg260
I0
sg261
V192.168.41.2
p2678
sg263
I24
sa(dp2679
g255
I2
sg256
I257
sg10
V192.168.1.0
p2680
sg258
S''
sg259
I100
sg260
I0
sg261
V192.168.51.1
p2681
sg263
I24
sa(dp2682
g255
I2
sg256
I257
sg10
V192.168.1.0
p2683
sg258
S''
sg259
I100
sg260
I0
sg261
V192.168.13.1
p2684
sg263
I24
sa(dp2685
g255
I2
sg256
I129
sg10
V192.168.1.0
p2686
sg258
S''
sg259
I100
sg260
I0
sg261
V192.168.11.2
p2687
sg263
I24
sa(dp2688
g255
I2
sg256
I129
sg10
V192.168.1.0
p2689
sg258
S''
sg259
I100
sg260
I0
sg261
V192.168.23.1
p2690
sg263
I24
sa(dp2691
g255
I2
sg256
I2
sg10
V10.21.3.0
p2692
sg258
S''
sg259
I100
sg260
I0
sg261
V192.168.41.2
p2693
sg263
I24
sa(dp2694
g255
I2
sg256
I129
sg10
V192.168.1.0
p2695
sg258
S''
sg259
I100
sg260
I0
sg261
V192.168.11.2
p2696
sg263
I24
sa(dp2697
g255
I2
sg256
I129
sg10
V192.168.1.0
p2698
sg258
S''
sg259
I100
sg260
I0
sg261
V192.168.23.1
p2699
sg263
I24
sa(dp2700
g255
I2
sg256
I3
sg10
V10.21.3.0
p2701
sg258
S''
sg259
I100
sg260
I0
sg261
V192.168.31.1
p2702
sg263
I24
sa(dp2703
g255
I2
sg256
I3
sg10
V10.21.3.0
p2704
sg258
S''
sg259
I100
sg260
I0
sg261
V192.168.31.1
p2705
sg263
I24
sa(dp2706
g255
I2
sg256
I2
sg10
V192.168.41.0
p2707
sg258
S''
sg259
I100
sg260
I0
sg261
V192.168.31.1
p2708
sg263
I24
sa(dp2709
g255
I0
sg256
I0
sg10
V192.168.13.0
p2710
sg258
S''
sg259
I100
sg260
I0
sg261
V192.168.23.2
p2711
sg263
I24
sa(dp2712
g255
I0
sg256
I0
sg10
V192.168.23.0
p2713
sg258
S''
sg259
I100
sg260
I0
sg261
V192.168.23.2
p2714
sg263
I24
sa(dp2715
g255
I2
sg256
I0
sg10
V192.168.31.0
p2716
sg258
S''
sg259
I100
sg260
I0
sg261
V192.168.23.2
p2717
sg263
I24
sa(dp2718
g255
I2
sg256
I0
sg10
V192.168.14.0
p2719
sg258
S''
sg259
I100
sg260
I0
sg261
V192.168.23.2
p2720
sg263
I24
sa(dp2721
g255
I0
sg256
I0
sg10
V192.168.51.0
p2722
sg258
S''
sg259
I100
sg260
I0
sg261
V192.168.13.1
p2723
sg263
I24
sa(dp2724
g255
I0
sg256
I0
sg10
V192.168.11.0
p2725
sg258
S''
sg259
I100
sg260
I0
sg261
V192.168.23.1
p2726
sg263
I24
sa(dp2727
g255
I2
sg256
I0
sg10
V192.168.5.0
p2728
sg258
S''
sg259
I100
sg260
I0
sg261
V192.168.13.1
p2729
sg263
I24
sa(dp2730
g255
I2
sg256
I0
sg10
V192.168.12.0
p2731
sg258
S''
sg259
I100
sg260
I0
sg261
V192.168.23.1
p2732
sg263
I24
sa(dp2733
g255
I2
sg256
I74
sg10
V192.168.7.0
p2734
sg258
S''
sg259
I100
sg260
I0
sg261
V192.168.23.1
p2735
sg263
I24
sa(dp2736
g255
I2
sg256
I2
sg10
V10.21.3.0
p2737
sg258
S''
sg259
I100
sg260
I0
sg261
V192.168.41.2
p2738
sg263
I24
sa(dp2739
g255
I0
sg256
I0
sg10
V192.168.11.0
p2740
sg258
S''
sg259
I100
sg260
I0
sg261
V192.168.11.1
p2741
sg263
I24
sa(dp2742
g255
I0
sg256
I0
sg10
V192.168.51.0
p2743
sg258
S''
sg259
I100
sg260
I0
sg261
V192.168.11.1
p2744
sg263
I24
sa(dp2745
g255
I2
sg256
I0
sg10
V192.168.41.0
p2746
sg258
S''
sg259
I100
sg260
I0
sg261
V192.168.11.1
p2747
sg263
I24
sa(dp2748
g255
I2
sg256
I0
sg10
V192.168.31.0
p2749
sg258
S''
sg259
I100
sg260
I0
sg261
V192.168.11.1
p2750
sg263
I24
sa(dp2751
g255
I2
sg256
I65
sg10
V192.168.14.0
p2752
sg258
S''
sg259
I100
sg260
I0
sg261
V192.168.31.2
p2753
sg263
I24
sa(dp2754
g255
I0
sg256
I0
sg10
V192.168.23.0
p2755
sg258
S''
sg259
I100
sg260
I0
sg261
V192.168.11.2
p2756
sg263
I24
sa(dp2757
g255
I0
sg256
I0
sg10
V192.168.13.0
p2758
sg258
S''
sg259
I100
sg260
I0
sg261
V192.168.51.1
p2759
sg263
I24
sa(dp2760
g255
I2
sg256
I0
sg10
V192.168.5.0
p2761
sg258
S''
sg259
I100
sg260
I0
sg261
V192.168.51.1
p2762
sg263
I24
sa(dp2763
g255
I2
sg256
I0
sg10
V192.168.12.0
p2764
sg258
S''
sg259
I100
sg260
I0
sg261
V192.168.11.2
p2765
sg263
I24
sa(dp2766
g255
I2
sg256
I74
sg10
V192.168.7.0
p2767
sg258
S''
sg259
I100
sg260
I0
sg261
V192.168.11.2
p2768
sg263
I24
sa(dp2769
g255
I2
sg256
I128
sg10
V192.168.4.0
p2770
sg258
S''
sg259
I100
sg260
I0
sg261
V192.168.13.1
p2771
sg263
I24
sa(dp2772
g255
I2
sg256
I128
sg10
V192.168.4.0
p2773
sg258
S''
sg259
I100
sg260
I0
sg261
V192.168.51.1
p2774
sg263
I24
sa(dp2775
g255
I2
sg256
I128
sg10
V192.168.27.0
p2776
sg258
S''
sg259
I100
sg260
I0
sg261
V192.168.11.2
p2777
sg263
I24
sa(dp2778
g255
I2
sg256
I128
sg10
V192.168.79.0
p2779
sg258
S''
sg259
I100
sg260
I0
sg261
V192.168.11.2
p2780
sg263
I24
sa(dp2781
g255
I2
sg256
I128
sg10
V192.168.17.0
p2782
sg258
S''
sg259
I100
sg260
I0
sg261
V192.168.11.2
p2783
sg263
I24
sa(dp2784
g255
I2
sg256
I129
sg10
V192.168.1.0
p2785
sg258
S''
sg259
I100
sg260
I0
sg261
V192.168.11.2
p2786
sg263
I24
sa(dp2787
g255
I2
sg256
I129
sg10
V192.168.99.99
p2788
sg258
S''
sg259
I100
sg260
I0
sg261
V192.168.11.2
p2789
sg263
I32
sa(dp2790
g255
I2
sg256
I138
sg10
V192.168.39.0
p2791
sg258
S''
sg259
I100
sg260
I0
sg261
V192.168.11.2
p2792
sg263
I24
sa(dp2793
g255
I2
sg256
I138
sg10
V192.168.3.0
p2794
sg258
S''
sg259
I100
sg260
I0
sg261
V192.168.11.2
p2795
sg263
I24
sa(dp2796
g255
I2
sg256
I192
sg10
V192.168.10.0
p2797
sg258
S''
sg259
I100
sg260
I0
sg261
V192.168.11.2
p2798
sg263
I24
sa(dp2799
g255
I2
sg256
I192
sg10
V192.168.29.0
p2800
sg258
S''
sg259
I100
sg260
I0
sg261
V192.168.11.2
p2801
sg263
I24
sa(dp2802
g255
I2
sg256
I192
sg10
V192.168.9.0
p2803
sg258
S''
sg259
I100
sg260
I0
sg261
V192.168.11.2
p2804
sg263
I24
sa(dp2805
g255
I2
sg256
I192
sg10
V192.168.6.0
p2806
sg258
S''
sg259
I100
sg260
I0
sg261
V192.168.11.2
p2807
sg263
I24
sa(dp2808
g255
I2
sg256
I192
sg10
V192.168.2.0
p2809
sg258
S''
sg259
I100
sg260
I0
sg261
V192.168.11.2
p2810
sg263
I24
sa(dp2811
g255
I2
sg256
I128
sg10
V192.168.27.0
p2812
sg258
S''
sg259
I100
sg260
I0
sg261
V192.168.23.1
p2813
sg263
I24
sa(dp2814
g255
I2
sg256
I128
sg10
V192.168.79.0
p2815
sg258
S''
sg259
I100
sg260
I0
sg261
V192.168.23.1
p2816
sg263
I24
sa(dp2817
g255
I2
sg256
I128
sg10
V192.168.17.0
p2818
sg258
S''
sg259
I100
sg260
I0
sg261
V192.168.23.1
p2819
sg263
I24
sa(dp2820
g255
I2
sg256
I129
sg10
V192.168.1.0
p2821
sg258
S''
sg259
I100
sg260
I0
sg261
V192.168.23.1
p2822
sg263
I24
sa(dp2823
g255
I2
sg256
I129
sg10
V192.168.99.99
p2824
sg258
S''
sg259
I100
sg260
I0
sg261
V192.168.23.1
p2825
sg263
I32
sa(dp2826
g255
I2
sg256
I138
sg10
V192.168.39.0
p2827
sg258
S''
sg259
I100
sg260
I0
sg261
V192.168.23.1
p2828
sg263
I24
sa(dp2829
g255
I2
sg256
I138
sg10
V192.168.3.0
p2830
sg258
S''
sg259
I100
sg260
I0
sg261
V192.168.23.1
p2831
sg263
I24
sa(dp2832
g255
I2
sg256
I192
sg10
V192.168.10.0
p2833
sg258
S''
sg259
I100
sg260
I0
sg261
V192.168.23.1
p2834
sg263
I24
sa(dp2835
g255
I2
sg256
I192
sg10
V192.168.29.0
p2836
sg258
S''
sg259
I100
sg260
I0
sg261
V192.168.23.1
p2837
sg263
I24
sa(dp2838
g255
I2
sg256
I192
sg10
V192.168.9.0
p2839
sg258
S''
sg259
I100
sg260
I0
sg261
V192.168.23.1
p2840
sg263
I24
sa(dp2841
g255
I2
sg256
I192
sg10
V192.168.6.0
p2842
sg258
S''
sg259
I100
sg260
I0
sg261
V192.168.23.1
p2843
sg263
I24
sa(dp2844
g255
I2
sg256
I192
sg10
V192.168.2.0
p2845
sg258
S''
sg259
I100
sg260
I0
sg261
V192.168.23.1
p2846
sg263
I24
sa(dp2847
g255
I2
sg256
I2
sg10
V10.21.3.0
p2848
sg258
S''
sg259
I100
sg260
I0
sg261
V192.168.41.2
p2849
sg263
I24
sa(dp2850
g255
I2
sg256
I257
sg10
V192.168.1.0
p2851
sg258
S''
sg259
I100
sg260
I0
sg261
V192.168.51.1
p2852
sg263
I24
sa(dp2853
g255
I2
sg256
I257
sg10
V192.168.1.0
p2854
sg258
S''
sg259
I100
sg260
I0
sg261
V192.168.51.1
p2855
sg263
I24
sa(dp2856
g255
I2
sg256
I257
sg10
V192.168.1.0
p2857
sg258
S''
sg259
I100
sg260
I0
sg261
V192.168.13.1
p2858
sg263
I24
sa(dp2859
g255
I2
sg256
I129
sg10
V192.168.1.0
p2860
sg258
S''
sg259
I100
sg260
I0
sg261
V192.168.11.2
p2861
sg263
I24
sa(dp2862
g255
I2
sg256
I129
sg10
V192.168.1.0
p2863
sg258
S''
sg259
I100
sg260
I0
sg261
V192.168.23.1
p2864
sg263
I24
sa(dp2865
g255
I2
sg256
I257
sg10
V192.168.1.0
p2866
sg258
S''
sg259
I100
sg260
I0
sg261
V192.168.51.1
p2867
sg263
I24
sa(dp2868
g255
I2
sg256
I257
sg10
V192.168.1.0
p2869
sg258
S''
sg259
I100
sg260
I0
sg261
V192.168.13.1
p2870
sg263
I24
sa(dp2871
g255
I2
sg256
I129
sg10
V192.168.1.0
p2872
sg258
S''
sg259
I100
sg260
I0
sg261
V192.168.11.2
p2873
sg263
I24
sa(dp2874
g255
I2
sg256
I129
sg10
V192.168.1.0
p2875
sg258
S''
sg259
I100
sg260
I0
sg261
V192.168.23.1
p2876
sg263
I24
sa(dp2877
g255
I2
sg256
I3
sg10
V10.21.3.0
p2878
sg258
S''
sg259
I100
sg260
I0
sg261
V192.168.31.1
p2879
sg263
I24
sa(dp2880
g255
I2
sg256
I2
sg10
V192.168.41.0
p2881
sg258
S''
sg259
I100
sg260
I0
sg261
V192.168.31.1
p2882
sg263
I24
sa(dp2883
g255
I0
sg256
I0
sg10
V192.168.23.0
p2884
sg258
S''
sg259
I100
sg260
I0
sg261
V192.168.23.2
p2885
sg263
I24
sa(dp2886
g255
I0
sg256
I0
sg10
V192.168.13.0
p2887
sg258
S''
sg259
I100
sg260
I0
sg261
V192.168.23.2
p2888
sg263
I24
sa(dp2889
g255
I2
sg256
I0
sg10
V192.168.31.0
p2890
sg258
S''
sg259
I100
sg260
I0
sg261
V192.168.23.2
p2891
sg263
I24
sa(dp2892
g255
I2
sg256
I0
sg10
V192.168.14.0
p2893
sg258
S''
sg259
I100
sg260
I0
sg261
V192.168.23.2
p2894
sg263
I24
sa(dp2895
g255
I0
sg256
I0
sg10
V192.168.11.0
p2896
sg258
S''
sg259
I100
sg260
I0
sg261
V192.168.23.1
p2897
sg263
I24
sa(dp2898
g255
I0
sg256
I0
sg10
V192.168.51.0
p2899
sg258
S''
sg259
I100
sg260
I0
sg261
V192.168.13.1
p2900
sg263
I24
sa(dp2901
g255
I2
sg256
I0
sg10
V192.168.12.0
p2902
sg258
S''
sg259
I100
sg260
I0
sg261
V192.168.23.1
p2903
sg263
I24
sa(dp2904
g255
I2
sg256
I0
sg10
V192.168.5.0
p2905
sg258
S''
sg259
I100
sg260
I0
sg261
V192.168.13.1
p2906
sg263
I24
sa(dp2907
g255
I2
sg256
I74
sg10
V192.168.7.0
p2908
sg258
S''
sg259
I100
sg260
I0
sg261
V192.168.23.1
p2909
sg263
I24
sa(dp2910
g255
I2
sg256
I128
sg10
V192.168.17.0
p2911
sg258
S''
sg259
I100
sg260
I0
sg261
V192.168.23.1
p2912
sg263
I24
sa(dp2913
g255
I2
sg256
I128
sg10
V192.168.27.0
p2914
sg258
S''
sg259
I100
sg260
I0
sg261
V192.168.23.1
p2915
sg263
I24
sa(dp2916
g255
I2
sg256
I128
sg10
V192.168.79.0
p2917
sg258
S''
sg259
I100
sg260
I0
sg261
V192.168.23.1
p2918
sg263
I24
sa(dp2919
g255
I2
sg256
I128
sg10
V192.168.4.0
p2920
sg258
S''
sg259
I100
sg260
I0
sg261
V192.168.13.1
p2921
sg263
I24
sa(dp2922
g255
I2
sg256
I129
sg10
V192.168.1.0
p2923
sg258
S''
sg259
I100
sg260
I0
sg261
V192.168.23.1
p2924
sg263
I24
sa(dp2925
g255
I2
sg256
I129
sg10
V192.168.99.99
p2926
sg258
S''
sg259
I100
sg260
I0
sg261
V192.168.23.1
p2927
sg263
I32
sa(dp2928
g255
I2
sg256
I138
sg10
V192.168.3.0
p2929
sg258
S''
sg259
I100
sg260
I0
sg261
V192.168.23.1
p2930
sg263
I24
sa(dp2931
g255
I2
sg256
I138
sg10
V192.168.39.0
p2932
sg258
S''
sg259
I100
sg260
I0
sg261
V192.168.23.1
p2933
sg263
I24
sa(dp2934
g255
I2
sg256
I192
sg10
V192.168.2.0
p2935
sg258
S''
sg259
I100
sg260
I0
sg261
V192.168.23.1
p2936
sg263
I24
sa(dp2937
g255
I2
sg256
I192
sg10
V192.168.6.0
p2938
sg258
S''
sg259
I100
sg260
I0
sg261
V192.168.23.1
p2939
sg263
I24
sa(dp2940
g255
I2
sg256
I192
sg10
V192.168.9.0
p2941
sg258
S''
sg259
I100
sg260
I0
sg261
V192.168.23.1
p2942
sg263
I24
sa(dp2943
g255
I2
sg256
I192
sg10
V192.168.10.0
p2944
sg258
S''
sg259
I100
sg260
I0
sg261
V192.168.23.1
p2945
sg263
I24
sa(dp2946
g255
I2
sg256
I192
sg10
V192.168.29.0
p2947
sg258
S''
sg259
I100
sg260
I0
sg261
V192.168.23.1
p2948
sg263
I24
sa(dp2949
g255
I2
sg256
I2
sg10
V10.21.3.0
p2950
sg258
S''
sg259
I100
sg260
I0
sg261
V192.168.41.2
p2951
sg263
I24
sa(dp2952
g255
I0
sg256
I0
sg10
V192.168.51.0
p2953
sg258
S''
sg259
I100
sg260
I0
sg261
V192.168.11.1
p2954
sg263
I24
sa(dp2955
g255
I0
sg256
I0
sg10
V192.168.11.0
p2956
sg258
S''
sg259
I100
sg260
I0
sg261
V192.168.11.1
p2957
sg263
I24
sa(dp2958
g255
I2
sg256
I0
sg10
V192.168.41.0
p2959
sg258
S''
sg259
I100
sg260
I0
sg261
V192.168.11.1
p2960
sg263
I24
sa(dp2961
g255
I2
sg256
I0
sg10
V192.168.31.0
p2962
sg258
S''
sg259
I100
sg260
I0
sg261
V192.168.11.1
p2963
sg263
I24
sa(dp2964
g255
I2
sg256
I65
sg10
V192.168.14.0
p2965
sg258
S''
sg259
I100
sg260
I0
sg261
V192.168.31.2
p2966
sg263
I24
sa(dp2967
g255
I0
sg256
I0
sg10
V192.168.23.0
p2968
sg258
S''
sg259
I100
sg260
I0
sg261
V192.168.11.2
p2969
sg263
I24
sa(dp2970
g255
I0
sg256
I0
sg10
V192.168.13.0
p2971
sg258
S''
sg259
I100
sg260
I0
sg261
V192.168.51.1
p2972
sg263
I24
sa(dp2973
g255
I2
sg256
I0
sg10
V192.168.12.0
p2974
sg258
S''
sg259
I100
sg260
I0
sg261
V192.168.11.2
p2975
sg263
I24
sa(dp2976
g255
I2
sg256
I0
sg10
V192.168.5.0
p2977
sg258
S''
sg259
I100
sg260
I0
sg261
V192.168.51.1
p2978
sg263
I24
sa(dp2979
g255
I2
sg256
I74
sg10
V192.168.7.0
p2980
sg258
S''
sg259
I100
sg260
I0
sg261
V192.168.11.2
p2981
sg263
I24
sa(dp2982
g255
I2
sg256
I128
sg10
V192.168.17.0
p2983
sg258
S''
sg259
I100
sg260
I0
sg261
V192.168.11.2
p2984
sg263
I24
sa(dp2985
g255
I2
sg256
I128
sg10
V192.168.27.0
p2986
sg258
S''
sg259
I100
sg260
I0
sg261
V192.168.11.2
p2987
sg263
I24
sa(dp2988
g255
I2
sg256
I128
sg10
V192.168.79.0
p2989
sg258
S''
sg259
I100
sg260
I0
sg261
V192.168.11.2
p2990
sg263
I24
sa(dp2991
g255
I2
sg256
I128
sg10
V192.168.4.0
p2992
sg258
S''
sg259
I100
sg260
I0
sg261
V192.168.51.1
p2993
sg263
I24
sa(dp2994
g255
I2
sg256
I129
sg10
V192.168.1.0
p2995
sg258
S''
sg259
I100
sg260
I0
sg261
V192.168.11.2
p2996
sg263
I24
sa(dp2997
g255
I2
sg256
I129
sg10
V192.168.99.99
p2998
sg258
S''
sg259
I100
sg260
I0
sg261
V192.168.11.2
p2999
sg263
I32
sa(dp3000
g255
I2
sg256
I138
sg10
V192.168.3.0
p3001
sg258
S''
sg259
I100
sg260
I0
sg261
V192.168.11.2
p3002
sg263
I24
sa(dp3003
g255
I2
sg256
I138
sg10
V192.168.39.0
p3004
sg258
S''
sg259
I100
sg260
I0
sg261
V192.168.11.2
p3005
sg263
I24
sa(dp3006
g255
I2
sg256
I192
sg10
V192.168.2.0
p3007
sg258
S''
sg259
I100
sg260
I0
sg261
V192.168.11.2
p3008
sg263
I24
sa(dp3009
g255
I2
sg256
I192
sg10
V192.168.6.0
p3010
sg258
S''
sg259
I100
sg260
I0
sg261
V192.168.11.2
p3011
sg263
I24
sa(dp3012
g255
I2
sg256
I192
sg10
V192.168.9.0
p3013
sg258
S''
sg259
I100
sg260
I0
sg261
V192.168.11.2
p3014
sg263
I24
sa(dp3015
g255
I2
sg256
I192
sg10
V192.168.10.0
p3016
sg258
S''
sg259
I100
sg260
I0
sg261
V192.168.11.2
p3017
sg263
I24
sa(dp3018
g255
I2
sg256
I192
sg10
V192.168.29.0
p3019
sg258
S''
sg259
I100
sg260
I0
sg261
V192.168.11.2
p3020
sg263
I24
sa(dp3021
g255
I2
sg256
I257
sg10
V192.168.1.0
p3022
sg258
S''
sg259
I100
sg260
I0
sg261
V192.168.51.1
p3023
sg263
I24
sa(dp3024
g255
I2
sg256
I257
sg10
V192.168.1.0
p3025
sg258
S''
sg259
I100
sg260
I0
sg261
V192.168.13.1
p3026
sg263
I24
sa(dp3027
g255
I2
sg256
I129
sg10
V192.168.1.0
p3028
sg258
S''
sg259
I100
sg260
I0
sg261
V192.168.11.2
p3029
sg263
I24
sa(dp3030
g255
I2
sg256
I129
sg10
V192.168.1.0
p3031
sg258
S''
sg259
I100
sg260
I0
sg261
V192.168.23.1
p3032
sg263
I24
sa(dp3033
g255
I2
sg256
I257
sg10
V192.168.1.0
p3034
sg258
S''
sg259
I100
sg260
I0
sg261
V192.168.13.1
p3035
sg263
I24
sa(dp3036
g255
I2
sg256
I257
sg10
V192.168.1.0
p3037
sg258
S''
sg259
I100
sg260
I0
sg261
V192.168.51.1
p3038
sg263
I24
sa(dp3039
g255
I2
sg256
I257
sg10
V192.168.1.0
p3040
sg258
S''
sg259
I100
sg260
I0
sg261
V192.168.13.1
p3041
sg263
I24
sa(dp3042
g255
I2
sg256
I257
sg10
V192.168.1.0
p3043
sg258
S''
sg259
I100
sg260
I0
sg261
V192.168.51.1
p3044
sg263
I24
sa(dp3045
g255
I2
sg256
I129
sg10
V192.168.1.0
p3046
sg258
S''
sg259
I100
sg260
I0
sg261
V192.168.23.1
p3047
sg263
I24
sa(dp3048
g255
I2
sg256
I129
sg10
V192.168.1.0
p3049
sg258
S''
sg259
I100
sg260
I0
sg261
V192.168.11.2
p3050
sg263
I24
sa(dp3051
g255
I2
sg256
I129
sg10
V192.168.1.0
p3052
sg258
S''
sg259
I100
sg260
I0
sg261
V192.168.11.2
p3053
sg263
I24
sa(dp3054
g255
I2
sg256
I129
sg10
V192.168.1.0
p3055
sg258
S''
sg259
I100
sg260
I0
sg261
V192.168.23.1
p3056
sg263
I24
sa(dp3057
g255
I2
sg256
I257
sg10
V192.168.1.0
p3058
sg258
S''
sg259
I100
sg260
I0
sg261
V192.168.51.1
p3059
sg263
I24
sa(dp3060
g255
I2
sg256
I257
sg10
V192.168.1.0
p3061
sg258
S''
sg259
I100
sg260
I0
sg261
V192.168.13.1
p3062
sg263
I24
sa(dp3063
g255
I2
sg256
I257
sg10
V192.168.1.0
p3064
sg258
S''
sg259
I100
sg260
I0
sg261
V192.168.51.1
p3065
sg263
I24
sa(dp3066
g255
I2
sg256
I257
sg10
V192.168.1.0
p3067
sg258
S''
sg259
I100
sg260
I0
sg261
V192.168.13.1
p3068
sg263
I24
sa(dp3069
g255
I2
sg256
I129
sg10
V192.168.1.0
p3070
sg258
S''
sg259
I100
sg260
I0
sg261
V192.168.23.1
p3071
sg263
I24
sa(dp3072
g255
I2
sg256
I129
sg10
V192.168.1.0
p3073
sg258
S''
sg259
I100
sg260
I0
sg261
V192.168.11.2
p3074
sg263
I24
sa(dp3075
g255
I2
sg256
I3
sg10
V10.21.3.0
p3076
sg258
S''
sg259
I100
sg260
I0
sg261
V192.168.31.1
p3077
sg263
I24
sa(dp3078
g255
I2
sg256
I2
sg10
V10.21.3.0
p3079
sg258
S''
sg259
I100
sg260
I0
sg261
V192.168.41.2
p3080
sg263
I24
sa(dp3081
g255
I2
sg256
I3
sg10
V10.21.3.0
p3082
sg258
S''
sg259
I100
sg260
I0
sg261
V192.168.31.1
p3083
sg263
I24
sa(dp3084
g255
I2
sg256
I3
sg10
V10.21.3.0
p3085
sg258
S''
sg259
I100
sg260
I0
sg261
V192.168.31.1
p3086
sg263
I24
sa(dp3087
g255
I2
sg256
I257
sg10
V192.168.1.0
p3088
sg258
S''
sg259
I100
sg260
I0
sg261
V192.168.13.1
p3089
sg263
I24
sa(dp3090
g255
I2
sg256
I129
sg10
V192.168.1.0
p3091
sg258
S''
sg259
I100
sg260
I0
sg261
V192.168.23.1
p3092
sg263
I24
sa(dp3093
g255
I2
sg256
I257
sg10
V192.168.1.0
p3094
sg258
S''
sg259
I100
sg260
I0
sg261
V192.168.51.1
p3095
sg263
I24
sa(dp3096
g255
I2
sg256
I129
sg10
V192.168.1.0
p3097
sg258
S''
sg259
I100
sg260
I0
sg261
V192.168.11.2
p3098
sg263
I24
sa(dp3099
g255
I2
sg256
I3
sg10
V10.21.3.0
p3100
sg258
S''
sg259
I100
sg260
I0
sg261
V192.168.31.1
p3101
sg263
I24
sa(dp3102
g255
I2
sg256
I257
sg10
V192.168.1.0
p3103
sg258
S''
sg259
I100
sg260
I0
sg261
V192.168.51.1
p3104
sg263
I24
sa(dp3105
g255
I2
sg256
I257
sg10
V192.168.1.0
p3106
sg258
S''
sg259
I100
sg260
I0
sg261
V192.168.13.1
p3107
sg263
I24
sa(dp3108
g255
I2
sg256
I129
sg10
V192.168.1.0
p3109
sg258
S''
sg259
I100
sg260
I0
sg261
V192.168.11.2
p3110
sg263
I24
sa(dp3111
g255
I2
sg256
I129
sg10
V192.168.1.0
p3112
sg258
S''
sg259
I100
sg260
I0
sg261
V192.168.23.1
p3113
sg263
I24
sa(dp3114
g255
I2
sg256
I129
sg10
V192.168.1.0
p3115
sg258
S''
sg259
I100
sg260
I0
sg261
V192.168.11.2
p3116
sg263
I24
sa(dp3117
g255
I2
sg256
I129
sg10
V192.168.1.0
p3118
sg258
S''
sg259
I100
sg260
I0
sg261
V192.168.23.1
p3119
sg263
I24
sa(dp3120
g255
I2
sg256
I3
sg10
V10.21.3.0
p3121
sg258
S''
sg259
I100
sg260
I0
sg261
V192.168.31.1
p3122
sg263
I24
sa(dp3123
g255
I2
sg256
I2
sg10
V10.21.3.0
p3124
sg258
S''
sg259
I100
sg260
I0
sg261
V192.168.41.2
p3125
sg263
I24
sa(dp3126
g255
I2
sg256
I257
sg10
V192.168.1.0
p3127
sg258
S''
sg259
I100
sg260
I0
sg261
V192.168.13.1
p3128
sg263
I24
sa(dp3129
g255
I2
sg256
I257
sg10
V192.168.1.0
p3130
sg258
S''
sg259
I100
sg260
I0
sg261
V192.168.51.1
p3131
sg263
I24
sa(dp3132
g255
I2
sg256
I257
sg10
V192.168.1.0
p3133
sg258
S''
sg259
I100
sg260
I0
sg261
V192.168.51.1
p3134
sg263
I24
sa(dp3135
g255
I2
sg256
I257
sg10
V192.168.1.0
p3136
sg258
S''
sg259
I100
sg260
I0
sg261
V192.168.13.1
p3137
sg263
I24
sa(dp3138
g255
I2
sg256
I129
sg10
V192.168.1.0
p3139
sg258
S''
sg259
I100
sg260
I0
sg261
V192.168.23.1
p3140
sg263
I24
sa(dp3141
g255
I2
sg256
I129
sg10
V192.168.1.0
p3142
sg258
S''
sg259
I100
sg260
I0
sg261
V192.168.11.2
p3143
sg263
I24
sa(dp3144
g255
I2
sg256
I129
sg10
V192.168.1.0
p3145
sg258
S''
sg259
I100
sg260
I0
sg261
V192.168.11.2
p3146
sg263
I24
sa(dp3147
g255
I2
sg256
I129
sg10
V192.168.1.0
p3148
sg258
S''
sg259
I100
sg260
I0
sg261
V192.168.23.1
p3149
sg263
I24
sa(dp3150
g255
I2
sg256
I2
sg10
V10.21.3.0
p3151
sg258
S''
sg259
I100
sg260
I0
sg261
V192.168.41.2
p3152
sg263
I24
sa(dp3153
g255
I2
sg256
I3
sg10
V10.21.3.0
p3154
sg258
S''
sg259
I100
sg260
I0
sg261
V192.168.31.1
p3155
sg263
I24
sa(dp3156
g255
I2
sg256
I2
sg10
V10.21.3.0
p3157
sg258
S''
sg259
I100
sg260
I0
sg261
V192.168.41.2
p3158
sg263
I24
sa(dp3159
g255
I2
sg256
I2
sg10
V10.21.3.0
p3160
sg258
S''
sg259
I100
sg260
I0
sg261
V192.168.41.2
p3161
sg263
I24
sa(dp3162
g255
I2
sg256
I257
sg10
V192.168.1.0
p3163
sg258
S''
sg259
I100
sg260
I0
sg261
V192.168.51.1
p3164
sg263
I24
sa(dp3165
g255
I2
sg256
I257
sg10
V192.168.1.0
p3166
sg258
S''
sg259
I100
sg260
I0
sg261
V192.168.13.1
p3167
sg263
I24
sa(dp3168
g255
I2
sg256
I129
sg10
V192.168.1.0
p3169
sg258
S''
sg259
I100
sg260
I0
sg261
V192.168.11.2
p3170
sg263
I24
sa(dp3171
g255
I2
sg256
I129
sg10
V192.168.1.0
p3172
sg258
S''
sg259
I100
sg260
I0
sg261
V192.168.23.1
p3173
sg263
I24
sa(dp3174
g255
I2
sg256
I3
sg10
V10.21.3.0
p3175
sg258
S''
sg259
I100
sg260
I0
sg261
V192.168.31.1
p3176
sg263
I24
sa(dp3177
g255
I2
sg256
I2
sg10
V10.21.3.0
p3178
sg258
S''
sg259
I100
sg260
I0
sg261
V192.168.41.2
p3179
sg263
I24
sa(dp3180
g255
I2
sg256
I129
sg10
V192.168.1.0
p3181
sg258
S''
sg259
I100
sg260
I0
sg261
V192.168.11.2
p3182
sg263
I24
sa(dp3183
g255
I2
sg256
I129
sg10
V192.168.1.0
p3184
sg258
S''
sg259
I100
sg260
I0
sg261
V192.168.23.1
p3185
sg263
I24
sa(dp3186
g255
I2
sg256
I257
sg10
V192.168.1.0
p3187
sg258
S''
sg259
I100
sg260
I0
sg261
V192.168.51.1
p3188
sg263
I24
sa(dp3189
g255
I2
sg256
I129
sg10
V192.168.1.0
p3190
sg258
S''
sg259
I100
sg260
I0
sg261
V192.168.11.2
p3191
sg263
I24
sa(dp3192
g255
I2
sg256
I129
sg10
V192.168.1.0
p3193
sg258
S''
sg259
I100
sg260
I0
sg261
V192.168.23.1
p3194
sg263
I24
sa(dp3195
g255
I2
sg256
I3
sg10
V10.21.3.0
p3196
sg258
S''
sg259
I100
sg260
I0
sg261
V192.168.31.1
p3197
sg263
I24
sa(dp3198
g255
I2
sg256
I2
sg10
V10.21.3.0
p3199
sg258
S''
sg259
I100
sg260
I0
sg261
V192.168.41.2
p3200
sg263
I24
sa(dp3201
g255
I2
sg256
I257
sg10
V192.168.1.0
p3202
sg258
S''
sg259
I100
sg260
I0
sg261
V192.168.51.1
p3203
sg263
I24
sa(dp3204
g255
I2
sg256
I257
sg10
V192.168.1.0
p3205
sg258
S''
sg259
I100
sg260
I0
sg261
V192.168.13.1
p3206
sg263
I24
sa(dp3207
g255
I2
sg256
I129
sg10
V192.168.1.0
p3208
sg258
S''
sg259
I100
sg260
I0
sg261
V192.168.11.2
p3209
sg263
I24
sa(dp3210
g255
I2
sg256
I129
sg10
V192.168.1.0
p3211
sg258
S''
sg259
I100
sg260
I0
sg261
V192.168.23.1
p3212
sg263
I24
sa(dp3213
g255
I2
sg256
I2
sg10
V10.21.3.0
p3214
sg258
S''
sg259
I100
sg260
I0
sg261
V192.168.41.2
p3215
sg263
I24
sa(dp3216
g255
I2
sg256
I257
sg10
V192.168.1.0
p3217
sg258
S''
sg259
I100
sg260
I0
sg261
V192.168.51.1
p3218
sg263
I24
sa(dp3219
g255
I2
sg256
I257
sg10
V192.168.1.0
p3220
sg258
S''
sg259
I100
sg260
I0
sg261
V192.168.13.1
p3221
sg263
I24
sa(dp3222
g255
I2
sg256
I257
sg10
V192.168.1.0
p3223
sg258
S''
sg259
I100
sg260
I0
sg261
V192.168.51.1
p3224
sg263
I24
sa(dp3225
g255
I2
sg256
I257
sg10
V192.168.1.0
p3226
sg258
S''
sg259
I100
sg260
I0
sg261
V192.168.13.1
p3227
sg263
I24
sa(dp3228
g255
I2
sg256
I129
sg10
V192.168.1.0
p3229
sg258
S''
sg259
I100
sg260
I0
sg261
V192.168.23.1
p3230
sg263
I24
sa(dp3231
g255
I2
sg256
I129
sg10
V192.168.1.0
p3232
sg258
S''
sg259
I100
sg260
I0
sg261
V192.168.11.2
p3233
sg263
I24
sa(dp3234
g255
I2
sg256
I2
sg10
V10.21.3.0
p3235
sg258
S''
sg259
I100
sg260
I0
sg261
V192.168.41.2
p3236
sg263
I24
sa(dp3237
g255
I2
sg256
I3
sg10
V10.21.3.0
p3238
sg258
S''
sg259
I100
sg260
I0
sg261
V192.168.31.1
p3239
sg263
I24
sa(dp3240
g255
I2
sg256
I257
sg10
V192.168.1.0
p3241
sg258
S''
sg259
I100
sg260
I0
sg261
V192.168.51.1
p3242
sg263
I24
sa(dp3243
g255
I2
sg256
I257
sg10
V192.168.1.0
p3244
sg258
S''
sg259
I100
sg260
I0
sg261
V192.168.13.1
p3245
sg263
I24
sa(dp3246
g255
I2
sg256
I129
sg10
V192.168.1.0
p3247
sg258
S''
sg259
I100
sg260
I0
sg261
V192.168.11.2
p3248
sg263
I24
sa(dp3249
g255
I2
sg256
I129
sg10
V192.168.1.0
p3250
sg258
S''
sg259
I100
sg260
I0
sg261
V192.168.23.1
p3251
sg263
I24
sa(dp3252
g255
I2
sg256
I3
sg10
V10.21.3.0
p3253
sg258
S''
sg259
I100
sg260
I0
sg261
V192.168.31.1
p3254
sg263
I24
sa(dp3255
g255
I2
sg256
I2
sg10
V10.21.3.0
p3256
sg258
S''
sg259
I100
sg260
I0
sg261
V192.168.41.2
p3257
sg263
I24
sa(dp3258
g255
I2
sg256
I129
sg10
V192.168.1.0
p3259
sg258
S''
sg259
I100
sg260
I0
sg261
V192.168.11.2
p3260
sg263
I24
sa(dp3261
g255
I2
sg256
I129
sg10
V192.168.1.0
p3262
sg258
S''
sg259
I100
sg260
I0
sg261
V192.168.23.1
p3263
sg263
I24
sa(dp3264
g255
I2
sg256
I257
sg10
V192.168.1.0
p3265
sg258
S''
sg259
I100
sg260
I0
sg261
V192.168.51.1
p3266
sg263
I24
sa(dp3267
g255
I2
sg256
I257
sg10
V192.168.1.0
p3268
sg258
S''
sg259
I100
sg260
I0
sg261
V192.168.13.1
p3269
sg263
I24
sa(dp3270
g255
I2
sg256
I129
sg10
V192.168.1.0
p3271
sg258
S''
sg259
I100
sg260
I0
sg261
V192.168.11.2
p3272
sg263
I24
sa(dp3273
g255
I2
sg256
I129
sg10
V192.168.1.0
p3274
sg258
S''
sg259
I100
sg260
I0
sg261
V192.168.23.1
p3275
sg263
I24
sa(dp3276
g255
I2
sg256
I2
sg10
V10.21.3.0
p3277
sg258
S''
sg259
I100
sg260
I0
sg261
V192.168.41.2
p3278
sg263
I24
sa(dp3279
g255
I2
sg256
I3
sg10
V10.21.3.0
p3280
sg258
S''
sg259
I100
sg260
I0
sg261
V192.168.31.1
p3281
sg263
I24
sa(dp3282
g255
I2
sg256
I257
sg10
V192.168.1.0
p3283
sg258
S''
sg259
I100
sg260
I0
sg261
V192.168.13.1
p3284
sg263
I24
sa(dp3285
g255
I2
sg256
I257
sg10
V192.168.1.0
p3286
sg258
S''
sg259
I100
sg260
I0
sg261
V192.168.13.1
p3287
sg263
I24
sa(dp3288
g255
I2
sg256
I257
sg10
V192.168.1.0
p3289
sg258
S''
sg259
I100
sg260
I0
sg261
V192.168.51.1
p3290
sg263
I24
sa(dp3291
g255
I2
sg256
I129
sg10
V192.168.1.0
p3292
sg258
S''
sg259
I100
sg260
I0
sg261
V192.168.23.1
p3293
sg263
I24
sa(dp3294
g255
I2
sg256
I129
sg10
V192.168.1.0
p3295
sg258
S''
sg259
I100
sg260
I0
sg261
V192.168.11.2
p3296
sg263
I24
sa(dp3297
g255
I2
sg256
I3
sg10
V10.21.3.0
p3298
sg258
S''
sg259
I100
sg260
I0
sg261
V192.168.31.1
p3299
sg263
I24
sa(dp3300
g255
I2
sg256
I129
sg10
V192.168.1.0
p3301
sg258
S''
sg259
I100
sg260
I0
sg261
V192.168.11.2
p3302
sg263
I24
sa(dp3303
g255
I2
sg256
I129
sg10
V192.168.1.0
p3304
sg258
S''
sg259
I100
sg260
I0
sg261
V192.168.23.1
p3305
sg263
I24
sa(dp3306
g255
I2
sg256
I2
sg10
V10.21.3.0
p3307
sg258
S''
sg259
I100
sg260
I0
sg261
V192.168.41.2
p3308
sg263
I24
sa(dp3309
g255
I2
sg256
I3
sg10
V10.21.3.0
p3310
sg258
S''
sg259
I100
sg260
I0
sg261
V192.168.31.1
p3311
sg263
I24
sa(dp3312
g255
I2
sg256
I2
sg10
V10.21.3.0
p3313
sg258
S''
sg259
I100
sg260
I0
sg261
V192.168.41.2
p3314
sg263
I24
sa(dp3315
g255
I2
sg256
I129
sg10
V192.168.1.0
p3316
sg258
S''
sg259
I100
sg260
I0
sg261
V192.168.11.2
p3317
sg263
I24
sa(dp3318
g255
I2
sg256
I129
sg10
V192.168.1.0
p3319
sg258
S''
sg259
I100
sg260
I0
sg261
V192.168.23.1
p3320
sg263
I24
sa(dp3321
g255
I2
sg256
I257
sg10
V192.168.1.0
p3322
sg258
S''
sg259
I100
sg260
I0
sg261
V192.168.51.1
p3323
sg263
I24
sa(dp3324
g255
I2
sg256
I257
sg10
V192.168.1.0
p3325
sg258
S''
sg259
I100
sg260
I0
sg261
V192.168.51.1
p3326
sg263
I24
sa(dp3327
g255
I2
sg256
I257
sg10
V192.168.1.0
p3328
sg258
S''
sg259
I100
sg260
I0
sg261
V192.168.13.1
p3329
sg263
I24
sa(dp3330
g255
I2
sg256
I129
sg10
V192.168.1.0
p3331
sg258
S''
sg259
I100
sg260
I0
sg261
V192.168.23.1
p3332
sg263
I24
sa(dp3333
g255
I2
sg256
I129
sg10
V192.168.1.0
p3334
sg258
S''
sg259
I100
sg260
I0
sg261
V192.168.11.2
p3335
sg263
I24
sa(dp3336
g255
I2
sg256
I3
sg10
V10.21.3.0
p3337
sg258
S''
sg259
I100
sg260
I0
sg261
V192.168.31.1
p3338
sg263
I24
sa(dp3339
g255
I2
sg256
I2
sg10
V10.21.3.0
p3340
sg258
S''
sg259
I100
sg260
I0
sg261
V192.168.41.2
p3341
sg263
I24
sa(dp3342
g255
I2
sg256
I129
sg10
V192.168.1.0
p3343
sg258
S''
sg259
I100
sg260
I0
sg261
V192.168.11.2
p3344
sg263
I24
sa(dp3345
g255
I2
sg256
I129
sg10
V192.168.1.0
p3346
sg258
S''
sg259
I100
sg260
I0
sg261
V192.168.23.1
p3347
sg263
I24
sa(dp3348
g255
I2
sg256
I2
sg10
V10.21.3.0
p3349
sg258
S''
sg259
I100
sg260
I0
sg261
V192.168.41.2
p3350
sg263
I24
sa(dp3351
g255
I2
sg256
I257
sg10
V192.168.1.0
p3352
sg258
S''
sg259
I100
sg260
I0
sg261
V192.168.51.1
p3353
sg263
I24
sa(dp3354
g255
I2
sg256
I257
sg10
V192.168.1.0
p3355
sg258
S''
sg259
I100
sg260
I0
sg261
V192.168.13.1
p3356
sg263
I24
sa(dp3357
g255
I2
sg256
I129
sg10
V192.168.1.0
p3358
sg258
S''
sg259
I100
sg260
I0
sg261
V192.168.23.1
p3359
sg263
I24
sa(dp3360
g255
I2
sg256
I257
sg10
V192.168.1.0
p3361
sg258
S''
sg259
I100
sg260
I0
sg261
V192.168.51.1
p3362
sg263
I24
sa(dp3363
g255
I2
sg256
I129
sg10
V192.168.1.0
p3364
sg258
S''
sg259
I100
sg260
I0
sg261
V192.168.11.2
p3365
sg263
I24
sa(dp3366
g255
I2
sg256
I2
sg10
V10.21.3.0
p3367
sg258
S''
sg259
I100
sg260
I0
sg261
V192.168.41.2
p3368
sg263
I24
sa(dp3369
g255
I2
sg256
I3
sg10
V10.21.3.0
p3370
sg258
S''
sg259
I100
sg260
I0
sg261
V192.168.31.1
p3371
sg263
I24
sa(dp3372
g255
I2
sg256
I257
sg10
V192.168.1.0
p3373
sg258
S''
sg259
I100
sg260
I0
sg261
V192.168.13.1
p3374
sg263
I24
sa(dp3375
g255
I2
sg256
I129
sg10
V192.168.1.0
p3376
sg258
S''
sg259
I100
sg260
I0
sg261
V192.168.23.1
p3377
sg263
I24
sa(dp3378
g255
I2
sg256
I257
sg10
V192.168.1.0
p3379
sg258
S''
sg259
I100
sg260
I0
sg261
V192.168.51.1
p3380
sg263
I24
sa(dp3381
g255
I2
sg256
I129
sg10
V192.168.1.0
p3382
sg258
S''
sg259
I100
sg260
I0
sg261
V192.168.11.2
p3383
sg263
I24
sa(dp3384
g255
I2
sg256
I129
sg10
V192.168.1.0
p3385
sg258
S''
sg259
I100
sg260
I0
sg261
V192.168.11.2
p3386
sg263
I24
sa(dp3387
g255
I2
sg256
I129
sg10
V192.168.1.0
p3388
sg258
S''
sg259
I100
sg260
I0
sg261
V192.168.23.1
p3389
sg263
I24
sa(dp3390
g255
I2
sg256
I2
sg10
V10.21.3.0
p3391
sg258
S''
sg259
I100
sg260
I0
sg261
V192.168.41.2
p3392
sg263
I24
sa(dp3393
g255
I2
sg256
I3
sg10
V10.21.3.0
p3394
sg258
S''
sg259
I100
sg260
I0
sg261
V192.168.31.1
p3395
sg263
I24
sa(dp3396
g255
I2
sg256
I3
sg10
V10.21.3.0
p3397
sg258
S''
sg259
I100
sg260
I0
sg261
V192.168.31.1
p3398
sg263
I24
sa(dp3399
g255
I2
sg256
I2
sg10
V192.168.41.0
p3400
sg258
S''
sg259
I100
sg260
I0
sg261
V192.168.31.1
p3401
sg263
I24
sa(dp3402
g255
I0
sg256
I0
sg10
V192.168.23.0
p3403
sg258
S''
sg259
I100
sg260
I0
sg261
V192.168.23.2
p3404
sg263
I24
sa(dp3405
g255
I0
sg256
I0
sg10
V192.168.13.0
p3406
sg258
S''
sg259
I100
sg260
I0
sg261
V192.168.23.2
p3407
sg263
I24
sa(dp3408
g255
I2
sg256
I0
sg10
V192.168.31.0
p3409
sg258
S''
sg259
I100
sg260
I0
sg261
V192.168.23.2
p3410
sg263
I24
sa(dp3411
g255
I2
sg256
I0
sg10
V192.168.14.0
p3412
sg258
S''
sg259
I100
sg260
I0
sg261
V192.168.23.2
p3413
sg263
I24
sa(dp3414
g255
I0
sg256
I0
sg10
V192.168.11.0
p3415
sg258
S''
sg259
I100
sg260
I0
sg261
V192.168.23.1
p3416
sg263
I24
sa(dp3417
g255
I0
sg256
I0
sg10
V192.168.51.0
p3418
sg258
S''
sg259
I100
sg260
I0
sg261
V192.168.13.1
p3419
sg263
I24
sa(dp3420
g255
I2
sg256
I0
sg10
V192.168.12.0
p3421
sg258
S''
sg259
I100
sg260
I0
sg261
V192.168.23.1
p3422
sg263
I24
sa(dp3423
g255
I2
sg256
I0
sg10
V192.168.5.0
p3424
sg258
S''
sg259
I100
sg260
I0
sg261
V192.168.13.1
p3425
sg263
I24
sa(dp3426
g255
I2
sg256
I74
sg10
V192.168.7.0
p3427
sg258
S''
sg259
I100
sg260
I0
sg261
V192.168.23.1
p3428
sg263
I24
sa(dp3429
g255
I2
sg256
I128
sg10
V192.168.17.0
p3430
sg258
S''
sg259
I100
sg260
I0
sg261
V192.168.23.1
p3431
sg263
I24
sa(dp3432
g255
I2
sg256
I128
sg10
V192.168.27.0
p3433
sg258
S''
sg259
I100
sg260
I0
sg261
V192.168.23.1
p3434
sg263
I24
sa(dp3435
g255
I2
sg256
I128
sg10
V192.168.79.0
p3436
sg258
S''
sg259
I100
sg260
I0
sg261
V192.168.23.1
p3437
sg263
I24
sa(dp3438
g255
I2
sg256
I128
sg10
V192.168.4.0
p3439
sg258
S''
sg259
I100
sg260
I0
sg261
V192.168.13.1
p3440
sg263
I24
sa(dp3441
g255
I2
sg256
I129
sg10
V192.168.1.0
p3442
sg258
S''
sg259
I100
sg260
I0
sg261
V192.168.23.1
p3443
sg263
I24
sa(dp3444
g255
I2
sg256
I129
sg10
V192.168.99.99
p3445
sg258
S''
sg259
I100
sg260
I0
sg261
V192.168.23.1
p3446
sg263
I32
sa(dp3447
g255
I2
sg256
I138
sg10
V192.168.3.0
p3448
sg258
S''
sg259
I100
sg260
I0
sg261
V192.168.23.1
p3449
sg263
I24
sa(dp3450
g255
I2
sg256
I138
sg10
V192.168.39.0
p3451
sg258
S''
sg259
I100
sg260
I0
sg261
V192.168.23.1
p3452
sg263
I24
sa(dp3453
g255
I2
sg256
I192
sg10
V192.168.2.0
p3454
sg258
S''
sg259
I100
sg260
I0
sg261
V192.168.23.1
p3455
sg263
I24
sa(dp3456
g255
I2
sg256
I192
sg10
V192.168.6.0
p3457
sg258
S''
sg259
I100
sg260
I0
sg261
V192.168.23.1
p3458
sg263
I24
sa(dp3459
g255
I2
sg256
I192
sg10
V192.168.9.0
p3460
sg258
S''
sg259
I100
sg260
I0
sg261
V192.168.23.1
p3461
sg263
I24
sa(dp3462
g255
I2
sg256
I192
sg10
V192.168.10.0
p3463
sg258
S''
sg259
I100
sg260
I0
sg261
V192.168.23.1
p3464
sg263
I24
sa(dp3465
g255
I2
sg256
I192
sg10
V192.168.29.0
p3466
sg258
S''
sg259
I100
sg260
I0
sg261
V192.168.23.1
p3467
sg263
I24
sa(dp3468
g255
I2
sg256
I2
sg10
V10.21.3.0
p3469
sg258
S''
sg259
I100
sg260
I0
sg261
V192.168.41.2
p3470
sg263
I24
sa(dp3471
g255
I2
sg256
I2
sg10
V10.21.3.0
p3472
sg258
S''
sg259
I100
sg260
I0
sg261
V192.168.41.2
p3473
sg263
I24
sa(dp3474
g255
I2
sg256
I3
sg10
V10.21.3.0
p3475
sg258
S''
sg259
I100
sg260
I0
sg261
V192.168.31.1
p3476
sg263
I24
sa(dp3477
g255
I2
sg256
I129
sg10
V192.168.1.0
p3478
sg258
S''
sg259
I100
sg260
I0
sg261
V192.168.23.1
p3479
sg263
I24
sa(dp3480
g255
I2
sg256
I129
sg10
V192.168.1.0
p3481
sg258
S''
sg259
I100
sg260
I0
sg261
V192.168.11.2
p3482
sg263
I24
sa(dp3483
g255
I2
sg256
I65
sg10
V192.168.14.0
p3484
sg258
S''
sg259
I100
sg260
I0
sg261
V192.168.31.2
p3485
sg263
I24
sa(dp3486
g255
I0
sg256
I0
sg10
V192.168.23.0
p3487
sg258
S''
sg259
I100
sg260
I0
sg261
V192.168.11.2
p3488
sg263
I24
sa(dp3489
g255
I0
sg256
I0
sg10
V192.168.13.0
p3490
sg258
S''
sg259
I100
sg260
I0
sg261
V192.168.51.1
p3491
sg263
I24
sa(dp3492
g255
I2
sg256
I0
sg10
V192.168.12.0
p3493
sg258
S''
sg259
I100
sg260
I0
sg261
V192.168.11.2
p3494
sg263
I24
sa(dp3495
g255
I2
sg256
I0
sg10
V192.168.5.0
p3496
sg258
S''
sg259
I100
sg260
I0
sg261
V192.168.51.1
p3497
sg263
I24
sa(dp3498
g255
I2
sg256
I74
sg10
V192.168.7.0
p3499
sg258
S''
sg259
I100
sg260
I0
sg261
V192.168.11.2
p3500
sg263
I24
sa(dp3501
g255
I2
sg256
I128
sg10
V192.168.17.0
p3502
sg258
S''
sg259
I100
sg260
I0
sg261
V192.168.11.2
p3503
sg263
I24
sa(dp3504
g255
I2
sg256
I128
sg10
V192.168.27.0
p3505
sg258
S''
sg259
I100
sg260
I0
sg261
V192.168.11.2
p3506
sg263
I24
sa(dp3507
g255
I2
sg256
I128
sg10
V192.168.79.0
p3508
sg258
S''
sg259
I100
sg260
I0
sg261
V192.168.11.2
p3509
sg263
I24
sa(dp3510
g255
I2
sg256
I128
sg10
V192.168.4.0
p3511
sg258
S''
sg259
I100
sg260
I0
sg261
V192.168.51.1
p3512
sg263
I24
sa(dp3513
g255
I2
sg256
I129
sg10
V192.168.1.0
p3514
sg258
S''
sg259
I100
sg260
I0
sg261
V192.168.11.2
p3515
sg263
I24
sa(dp3516
g255
I2
sg256
I129
sg10
V192.168.99.99
p3517
sg258
S''
sg259
I100
sg260
I0
sg261
V192.168.11.2
p3518
sg263
I32
sa(dp3519
g255
I2
sg256
I138
sg10
V192.168.3.0
p3520
sg258
S''
sg259
I100
sg260
I0
sg261
V192.168.11.2
p3521
sg263
I24
sa(dp3522
g255
I2
sg256
I138
sg10
V192.168.39.0
p3523
sg258
S''
sg259
I100
sg260
I0
sg261
V192.168.11.2
p3524
sg263
I24
sa(dp3525
g255
I2
sg256
I192
sg10
V192.168.2.0
p3526
sg258
S''
sg259
I100
sg260
I0
sg261
V192.168.11.2
p3527
sg263
I24
sa(dp3528
g255
I2
sg256
I192
sg10
V192.168.6.0
p3529
sg258
S''
sg259
I100
sg260
I0
sg261
V192.168.11.2
p3530
sg263
I24
sa(dp3531
g255
I2
sg256
I192
sg10
V192.168.9.0
p3532
sg258
S''
sg259
I100
sg260
I0
sg261
V192.168.11.2
p3533
sg263
I24
sa(dp3534
g255
I2
sg256
I192
sg10
V192.168.10.0
p3535
sg258
S''
sg259
I100
sg260
I0
sg261
V192.168.11.2
p3536
sg263
I24
sa(dp3537
g255
I2
sg256
I192
sg10
V192.168.29.0
p3538
sg258
S''
sg259
I100
sg260
I0
sg261
V192.168.11.2
p3539
sg263
I24
sa(dp3540
g255
I2
sg256
I257
sg10
V192.168.1.0
p3541
sg258
S''
sg259
I100
sg260
I0
sg261
V192.168.51.1
p3542
sg263
I24
sa(dp3543
g255
I2
sg256
I257
sg10
V192.168.1.0
p3544
sg258
S''
sg259
I100
sg260
I0
sg261
V192.168.13.1
p3545
sg263
I24
sa(dp3546
g255
I2
sg256
I129
sg10
V192.168.1.0
p3547
sg258
S''
sg259
I100
sg260
I0
sg261
V192.168.11.2
p3548
sg263
I24
sa(dp3549
g255
I2
sg256
I129
sg10
V192.168.1.0
p3550
sg258
S''
sg259
I100
sg260
I0
sg261
V192.168.23.1
p3551
sg263
I24
sa(dp3552
g255
I2
sg256
I257
sg10
V192.168.1.0
p3553
sg258
S''
sg259
I100
sg260
I0
sg261
V192.168.51.1
p3554
sg263
I24
sa(dp3555
g255
I2
sg256
I257
sg10
V192.168.1.0
p3556
sg258
S''
sg259
I100
sg260
I0
sg261
V192.168.13.1
p3557
sg263
I24
sa(dp3558
g255
I2
sg256
I257
sg10
V192.168.1.0
p3559
sg258
S''
sg259
I100
sg260
I0
sg261
V192.168.13.1
p3560
sg263
I24
sa(dp3561
g255
I2
sg256
I257
sg10
V192.168.1.0
p3562
sg258
S''
sg259
I100
sg260
I0
sg261
V192.168.51.1
p3563
sg263
I24
sa(dp3564
g255
I2
sg256
I129
sg10
V192.168.1.0
p3565
sg258
S''
sg259
I100
sg260
I0
sg261
V192.168.11.2
p3566
sg263
I24
sa(dp3567
g255
I2
sg256
I129
sg10
V192.168.1.0
p3568
sg258
S''
sg259
I100
sg260
I0
sg261
V192.168.23.1
p3569
sg263
I24
sa(dp3570
g255
I2
sg256
I129
sg10
V192.168.1.0
p3571
sg258
S''
sg259
I100
sg260
I0
sg261
V192.168.11.2
p3572
sg263
I24
sa(dp3573
g255
I2
sg256
I129
sg10
V192.168.1.0
p3574
sg258
S''
sg259
I100
sg260
I0
sg261
V192.168.23.1
p3575
sg263
I24
sa(dp3576
g255
I2
sg256
I3
sg10
V10.21.3.0
p3577
sg258
S''
sg259
I100
sg260
I0
sg261
V192.168.31.1
p3578
sg263
I24
sa(dp3579
g255
I2
sg256
I2
sg10
V10.21.3.0
p3580
sg258
S''
sg259
I100
sg260
I0
sg261
V192.168.41.2
p3581
sg263
I24
sa(dp3582
g255
I2
sg256
I2
sg10
V10.21.3.0
p3583
sg258
S''
sg259
I100
sg260
I0
sg261
V192.168.41.2
p3584
sg263
I24
sa(dp3585
g255
I2
sg256
I3
sg10
V10.21.3.0
p3586
sg258
S''
sg259
I100
sg260
I0
sg261
V192.168.31.1
p3587
sg263
I24
sa(dp3588
g255
I2
sg256
I257
sg10
V192.168.1.0
p3589
sg258
S''
sg259
I100
sg260
I0
sg261
V192.168.51.1
p3590
sg263
I24
sa(dp3591
g255
I2
sg256
I257
sg10
V192.168.1.0
p3592
sg258
S''
sg259
I100
sg260
I0
sg261
V192.168.13.1
p3593
sg263
I24
sa(dp3594
g255
I2
sg256
I257
sg10
V192.168.1.0
p3595
sg258
S''
sg259
I100
sg260
I0
sg261
V192.168.51.1
p3596
sg263
I24
sa(dp3597
g255
I2
sg256
I257
sg10
V192.168.1.0
p3598
sg258
S''
sg259
I100
sg260
I0
sg261
V192.168.13.1
p3599
sg263
I24
sa(dp3600
g255
I2
sg256
I129
sg10
V192.168.1.0
p3601
sg258
S''
sg259
I100
sg260
I0
sg261
V192.168.11.2
p3602
sg263
I24
sa(dp3603
g255
I2
sg256
I129
sg10
V192.168.1.0
p3604
sg258
S''
sg259
I100
sg260
I0
sg261
V192.168.23.1
p3605
sg263
I24
sa(dp3606
g255
I2
sg256
I257
sg10
V192.168.1.0
p3607
sg258
S''
sg259
I100
sg260
I0
sg261
V192.168.51.1
p3608
sg263
I24
sa(dp3609
g255
I2
sg256
I129
sg10
V192.168.1.0
p3610
sg258
S''
sg259
I100
sg260
I0
sg261
V192.168.11.2
p3611
sg263
I24
sa(dp3612
g255
I2
sg256
I257
sg10
V192.168.1.0
p3613
sg258
S''
sg259
I100
sg260
I0
sg261
V192.168.13.1
p3614
sg263
I24
sa(dp3615
g255
I2
sg256
I129
sg10
V192.168.1.0
p3616
sg258
S''
sg259
I100
sg260
I0
sg261
V192.168.23.1
p3617
sg263
I24
sa(dp3618
g255
I2
sg256
I3
sg10
V10.21.3.0
p3619
sg258
S''
sg259
I100
sg260
I0
sg261
V192.168.31.1
p3620
sg263
I24
sa(dp3621
g255
I2
sg256
I2
sg10
V10.21.3.0
p3622
sg258
S''
sg259
I100
sg260
I0
sg261
V192.168.41.2
p3623
sg263
I24
sa(dp3624
g255
I2
sg256
I129
sg10
V192.168.1.0
p3625
sg258
S''
sg259
I100
sg260
I0
sg261
V192.168.11.2
p3626
sg263
I24
sa(dp3627
g255
I2
sg256
I257
sg10
V192.168.1.0
p3628
sg258
S''
sg259
I100
sg260
I0
sg261
V192.168.13.1
p3629
sg263
I24
sa(dp3630
g255
I2
sg256
I129
sg10
V192.168.1.0
p3631
sg258
S''
sg259
I100
sg260
I0
sg261
V192.168.23.1
p3632
sg263
I24
sa(dp3633
g255
I2
sg256
I257
sg10
V192.168.1.0
p3634
sg258
S''
sg259
I100
sg260
I0
sg261
V192.168.51.1
p3635
sg263
I24
sa(dp3636
g255
I2
sg256
I129
sg10
V192.168.1.0
p3637
sg258
S''
sg259
I100
sg260
I0
sg261
V192.168.11.2
p3638
sg263
I24
sa(dp3639
g255
I2
sg256
I129
sg10
V192.168.1.0
p3640
sg258
S''
sg259
I100
sg260
I0
sg261
V192.168.23.1
p3641
sg263
I24
sa(dp3642
g255
I2
sg256
I257
sg10
V192.168.1.0
p3643
sg258
S''
sg259
I100
sg260
I0
sg261
V192.168.51.1
p3644
sg263
I24
sa(dp3645
g255
I2
sg256
I257
sg10
V192.168.1.0
p3646
sg258
S''
sg259
I100
sg260
I0
sg261
V192.168.13.1
p3647
sg263
I24
sa(dp3648
g255
I2
sg256
I129
sg10
V192.168.1.0
p3649
sg258
S''
sg259
I100
sg260
I0
sg261
V192.168.11.2
p3650
sg263
I24
sa(dp3651
g255
I2
sg256
I129
sg10
V192.168.1.0
p3652
sg258
S''
sg259
I100
sg260
I0
sg261
V192.168.23.1
p3653
sg263
I24
sa(dp3654
g255
I2
sg256
I3
sg10
V10.21.3.0
p3655
sg258
S''
sg259
I100
sg260
I0
sg261
V192.168.31.1
p3656
sg263
I24
sa(dp3657
g255
I2
sg256
I257
sg10
V192.168.1.0
p3658
sg258
S''
sg259
I100
sg260
I0
sg261
V192.168.51.1
p3659
sg263
I24
sa(dp3660
g255
I2
sg256
I257
sg10
V192.168.1.0
p3661
sg258
S''
sg259
I100
sg260
I0
sg261
V192.168.13.1
p3662
sg263
I24
sa(dp3663
g255
I2
sg256
I129
sg10
V192.168.1.0
p3664
sg258
S''
sg259
I100
sg260
I0
sg261
V192.168.11.2
p3665
sg263
I24
sa(dp3666
g255
I2
sg256
I129
sg10
V192.168.1.0
p3667
sg258
S''
sg259
I100
sg260
I0
sg261
V192.168.23.1
p3668
sg263
I24
sa(dp3669
g255
I2
sg256
I129
sg10
V192.168.1.0
p3670
sg258
S''
sg259
I100
sg260
I0
sg261
V192.168.11.2
p3671
sg263
I24
sa(dp3672
g255
I2
sg256
I129
sg10
V192.168.1.0
p3673
sg258
S''
sg259
I100
sg260
I0
sg261
V192.168.23.1
p3674
sg263
I24
sa(dp3675
g255
I2
sg256
I2
sg10
V10.21.3.0
p3676
sg258
S''
sg259
I100
sg260
I0
sg261
V192.168.41.2
p3677
sg263
I24
sa(dp3678
g255
I2
sg256
I3
sg10
V10.21.3.0
p3679
sg258
S''
sg259
I100
sg260
I0
sg261
V192.168.31.1
p3680
sg263
I24
sa(dp3681
g255
I2
sg256
I2
sg10
V10.21.3.0
p3682
sg258
S''
sg259
I100
sg260
I0
sg261
V192.168.41.2
p3683
sg263
I24
sa(dp3684
g255
I2
sg256
I3
sg10
V10.21.3.0
p3685
sg258
S''
sg259
I100
sg260
I0
sg261
V192.168.31.1
p3686
sg263
I24
sa(dp3687
g255
I2
sg256
I257
sg10
V192.168.1.0
p3688
sg258
S''
sg259
I100
sg260
I0
sg261
V192.168.51.1
p3689
sg263
I24
sa(dp3690
g255
I2
sg256
I257
sg10
V192.168.1.0
p3691
sg258
S''
sg259
I100
sg260
I0
sg261
V192.168.13.1
p3692
sg263
I24
sa(dp3693
g255
I2
sg256
I129
sg10
V192.168.1.0
p3694
sg258
S''
sg259
I100
sg260
I0
sg261
V192.168.11.2
p3695
sg263
I24
sa(dp3696
g255
I2
sg256
I129
sg10
V192.168.1.0
p3697
sg258
S''
sg259
I100
sg260
I0
sg261
V192.168.23.1
p3698
sg263
I24
sa(dp3699
g255
I2
sg256
I2
sg10
V10.21.3.0
p3700
sg258
S''
sg259
I100
sg260
I0
sg261
V192.168.41.2
p3701
sg263
I24
sa(dp3702
g255
I2
sg256
I2
sg10
V10.21.3.0
p3703
sg258
S''
sg259
I100
sg260
I0
sg261
V192.168.41.2
p3704
sg263
I24
sa(dp3705
g255
I2
sg256
I2
sg10
V10.21.3.0
p3706
sg258
S''
sg259
I100
sg260
I0
sg261
V192.168.41.2
p3707
sg263
I24
sa(dp3708
g255
I0
sg256
I0
sg10
V192.168.51.0
p3709
sg258
S''
sg259
I100
sg260
I0
sg261
V192.168.11.1
p3710
sg263
I24
sa(dp3711
g255
I0
sg256
I0
sg10
V192.168.11.0
p3712
sg258
S''
sg259
I100
sg260
I0
sg261
V192.168.11.1
p3713
sg263
I24
sa(dp3714
g255
I2
sg256
I0
sg10
V192.168.41.0
p3715
sg258
S''
sg259
I100
sg260
I0
sg261
V192.168.11.1
p3716
sg263
I24
sa(dp3717
g255
I2
sg256
I0
sg10
V192.168.31.0
p3718
sg258
S''
sg259
I100
sg260
I0
sg261
V192.168.11.1
p3719
sg263
I24
sa(dp3720
g255
I2
sg256
I65
sg10
V192.168.14.0
p3721
sg258
S''
sg259
I100
sg260
I0
sg261
V192.168.31.2
p3722
sg263
I24
sa(dp3723
g255
I0
sg256
I0
sg10
V192.168.23.0
p3724
sg258
S''
sg259
I100
sg260
I0
sg261
V192.168.11.2
p3725
sg263
I24
sa(dp3726
g255
I0
sg256
I0
sg10
V192.168.13.0
p3727
sg258
S''
sg259
I100
sg260
I0
sg261
V192.168.51.1
p3728
sg263
I24
sa(dp3729
g255
I2
sg256
I0
sg10
V192.168.12.0
p3730
sg258
S''
sg259
I100
sg260
I0
sg261
V192.168.11.2
p3731
sg263
I24
sa(dp3732
g255
I2
sg256
I0
sg10
V192.168.5.0
p3733
sg258
S''
sg259
I100
sg260
I0
sg261
V192.168.51.1
p3734
sg263
I24
sa(dp3735
g255
I2
sg256
I74
sg10
V192.168.7.0
p3736
sg258
S''
sg259
I100
sg260
I0
sg261
V192.168.11.2
p3737
sg263
I24
sa(dp3738
g255
I2
sg256
I128
sg10
V192.168.17.0
p3739
sg258
S''
sg259
I100
sg260
I0
sg261
V192.168.11.2
p3740
sg263
I24
sa(dp3741
g255
I2
sg256
I128
sg10
V192.168.27.0
p3742
sg258
S''
sg259
I100
sg260
I0
sg261
V192.168.11.2
p3743
sg263
I24
sa(dp3744
g255
I2
sg256
I128
sg10
V192.168.79.0
p3745
sg258
S''
sg259
I100
sg260
I0
sg261
V192.168.11.2
p3746
sg263
I24
sa(dp3747
g255
I2
sg256
I128
sg10
V192.168.4.0
p3748
sg258
S''
sg259
I100
sg260
I0
sg261
V192.168.51.1
p3749
sg263
I24
sa(dp3750
g255
I2
sg256
I129
sg10
V192.168.1.0
p3751
sg258
S''
sg259
I100
sg260
I0
sg261
V192.168.11.2
p3752
sg263
I24
sa(dp3753
g255
I2
sg256
I129
sg10
V192.168.99.99
p3754
sg258
S''
sg259
I100
sg260
I0
sg261
V192.168.11.2
p3755
sg263
I32
sa(dp3756
g255
I2
sg256
I138
sg10
V192.168.3.0
p3757
sg258
S''
sg259
I100
sg260
I0
sg261
V192.168.11.2
p3758
sg263
I24
sa(dp3759
g255
I2
sg256
I138
sg10
V192.168.39.0
p3760
sg258
S''
sg259
I100
sg260
I0
sg261
V192.168.11.2
p3761
sg263
I24
sa(dp3762
g255
I2
sg256
I192
sg10
V192.168.2.0
p3763
sg258
S''
sg259
I100
sg260
I0
sg261
V192.168.11.2
p3764
sg263
I24
sa(dp3765
g255
I2
sg256
I192
sg10
V192.168.6.0
p3766
sg258
S''
sg259
I100
sg260
I0
sg261
V192.168.11.2
p3767
sg263
I24
sa(dp3768
g255
I2
sg256
I192
sg10
V192.168.9.0
p3769
sg258
S''
sg259
I100
sg260
I0
sg261
V192.168.11.2
p3770
sg263
I24
sa(dp3771
g255
I2
sg256
I192
sg10
V192.168.10.0
p3772
sg258
S''
sg259
I100
sg260
I0
sg261
V192.168.11.2
p3773
sg263
I24
sa(dp3774
g255
I2
sg256
I192
sg10
V192.168.29.0
p3775
sg258
S''
sg259
I100
sg260
I0
sg261
V192.168.11.2
p3776
sg263
I24
sa(dp3777
g255
I2
sg256
I3
sg10
V10.21.3.0
p3778
sg258
S''
sg259
I100
sg260
I0
sg261
V192.168.31.1
p3779
sg263
I24
sa(dp3780
g255
I2
sg256
I2
sg10
V192.168.41.0
p3781
sg258
S''
sg259
I100
sg260
I0
sg261
V192.168.31.1
p3782
sg263
I24
sa(dp3783
g255
I0
sg256
I0
sg10
V192.168.23.0
p3784
sg258
S''
sg259
I100
sg260
I0
sg261
V192.168.23.2
p3785
sg263
I24
sa(dp3786
g255
I0
sg256
I0
sg10
V192.168.13.0
p3787
sg258
S''
sg259
I100
sg260
I0
sg261
V192.168.23.2
p3788
sg263
I24
sa(dp3789
g255
I2
sg256
I0
sg10
V192.168.31.0
p3790
sg258
S''
sg259
I100
sg260
I0
sg261
V192.168.23.2
p3791
sg263
I24
sa(dp3792
g255
I2
sg256
I0
sg10
V192.168.14.0
p3793
sg258
S''
sg259
I100
sg260
I0
sg261
V192.168.23.2
p3794
sg263
I24
sa(dp3795
g255
I0
sg256
I0
sg10
V192.168.11.0
p3796
sg258
S''
sg259
I100
sg260
I0
sg261
V192.168.23.1
p3797
sg263
I24
sa(dp3798
g255
I0
sg256
I0
sg10
V192.168.51.0
p3799
sg258
S''
sg259
I100
sg260
I0
sg261
V192.168.13.1
p3800
sg263
I24
sa(dp3801
g255
I2
sg256
I0
sg10
V192.168.12.0
p3802
sg258
S''
sg259
I100
sg260
I0
sg261
V192.168.23.1
p3803
sg263
I24
sa(dp3804
g255
I2
sg256
I0
sg10
V192.168.5.0
p3805
sg258
S''
sg259
I100
sg260
I0
sg261
V192.168.13.1
p3806
sg263
I24
sa(dp3807
g255
I2
sg256
I74
sg10
V192.168.7.0
p3808
sg258
S''
sg259
I100
sg260
I0
sg261
V192.168.23.1
p3809
sg263
I24
sa(dp3810
g255
I2
sg256
I128
sg10
V192.168.17.0
p3811
sg258
S''
sg259
I100
sg260
I0
sg261
V192.168.23.1
p3812
sg263
I24
sa(dp3813
g255
I2
sg256
I128
sg10
V192.168.27.0
p3814
sg258
S''
sg259
I100
sg260
I0
sg261
V192.168.23.1
p3815
sg263
I24
sa(dp3816
g255
I2
sg256
I128
sg10
V192.168.79.0
p3817
sg258
S''
sg259
I100
sg260
I0
sg261
V192.168.23.1
p3818
sg263
I24
sa(dp3819
g255
I2
sg256
I128
sg10
V192.168.4.0
p3820
sg258
S''
sg259
I100
sg260
I0
sg261
V192.168.13.1
p3821
sg263
I24
sa(dp3822
g255
I2
sg256
I129
sg10
V192.168.1.0
p3823
sg258
S''
sg259
I100
sg260
I0
sg261
V192.168.23.1
p3824
sg263
I24
sa(dp3825
g255
I2
sg256
I129
sg10
V192.168.99.99
p3826
sg258
S''
sg259
I100
sg260
I0
sg261
V192.168.23.1
p3827
sg263
I32
sa(dp3828
g255
I2
sg256
I138
sg10
V192.168.3.0
p3829
sg258
S''
sg259
I100
sg260
I0
sg261
V192.168.23.1
p3830
sg263
I24
sa(dp3831
g255
I2
sg256
I138
sg10
V192.168.39.0
p3832
sg258
S''
sg259
I100
sg260
I0
sg261
V192.168.23.1
p3833
sg263
I24
sa(dp3834
g255
I2
sg256
I192
sg10
V192.168.2.0
p3835
sg258
S''
sg259
I100
sg260
I0
sg261
V192.168.23.1
p3836
sg263
I24
sa(dp3837
g255
I2
sg256
I192
sg10
V192.168.6.0
p3838
sg258
S''
sg259
I100
sg260
I0
sg261
V192.168.23.1
p3839
sg263
I24
sa(dp3840
g255
I2
sg256
I192
sg10
V192.168.9.0
p3841
sg258
S''
sg259
I100
sg260
I0
sg261
V192.168.23.1
p3842
sg263
I24
sa(dp3843
g255
I2
sg256
I192
sg10
V192.168.10.0
p3844
sg258
S''
sg259
I100
sg260
I0
sg261
V192.168.23.1
p3845
sg263
I24
sa(dp3846
g255
I2
sg256
I192
sg10
V192.168.29.0
p3847
sg258
S''
sg259
I100
sg260
I0
sg261
V192.168.23.1
p3848
sg263
I24
sa(dp3849
g255
I2
sg256
I2
sg10
V10.21.3.0
p3850
sg258
S''
sg259
I100
sg260
I0
sg261
V192.168.41.2
p3851
sg263
I24
sa(dp3852
g255
I0
sg256
I0
sg10
V192.168.51.0
p3853
sg258
S''
sg259
I100
sg260
I0
sg261
V192.168.11.1
p3854
sg263
I24
sa(dp3855
g255
I0
sg256
I0
sg10
V192.168.11.0
p3856
sg258
S''
sg259
I100
sg260
I0
sg261
V192.168.11.1
p3857
sg263
I24
sa(dp3858
g255
I2
sg256
I0
sg10
V192.168.41.0
p3859
sg258
S''
sg259
I100
sg260
I0
sg261
V192.168.11.1
p3860
sg263
I24
sa(dp3861
g255
I2
sg256
I0
sg10
V192.168.31.0
p3862
sg258
S''
sg259
I100
sg260
I0
sg261
V192.168.11.1
p3863
sg263
I24
sa(dp3864
g255
I2
sg256
I65
sg10
V192.168.14.0
p3865
sg258
S''
sg259
I100
sg260
I0
sg261
V192.168.31.2
p3866
sg263
I24
sa(dp3867
g255
I0
sg256
I0
sg10
V192.168.23.0
p3868
sg258
S''
sg259
I100
sg260
I0
sg261
V192.168.11.2
p3869
sg263
I24
sa(dp3870
g255
I0
sg256
I0
sg10
V192.168.13.0
p3871
sg258
S''
sg259
I100
sg260
I0
sg261
V192.168.51.1
p3872
sg263
I24
sa(dp3873
g255
I2
sg256
I0
sg10
V192.168.12.0
p3874
sg258
S''
sg259
I100
sg260
I0
sg261
V192.168.11.2
p3875
sg263
I24
sa(dp3876
g255
I2
sg256
I0
sg10
V192.168.5.0
p3877
sg258
S''
sg259
I100
sg260
I0
sg261
V192.168.51.1
p3878
sg263
I24
sa(dp3879
g255
I2
sg256
I74
sg10
V192.168.7.0
p3880
sg258
S''
sg259
I100
sg260
I0
sg261
V192.168.11.2
p3881
sg263
I24
sa(dp3882
g255
I2
sg256
I128
sg10
V192.168.17.0
p3883
sg258
S''
sg259
I100
sg260
I0
sg261
V192.168.11.2
p3884
sg263
I24
sa(dp3885
g255
I2
sg256
I128
sg10
V192.168.27.0
p3886
sg258
S''
sg259
I100
sg260
I0
sg261
V192.168.11.2
p3887
sg263
I24
sa(dp3888
g255
I2
sg256
I128
sg10
V192.168.79.0
p3889
sg258
S''
sg259
I100
sg260
I0
sg261
V192.168.11.2
p3890
sg263
I24
sa(dp3891
g255
I2
sg256
I128
sg10
V192.168.4.0
p3892
sg258
S''
sg259
I100
sg260
I0
sg261
V192.168.51.1
p3893
sg263
I24
sa(dp3894
g255
I2
sg256
I129
sg10
V192.168.1.0
p3895
sg258
S''
sg259
I100
sg260
I0
sg261
V192.168.11.2
p3896
sg263
I24
sa(dp3897
g255
I2
sg256
I129
sg10
V192.168.99.99
p3898
sg258
S''
sg259
I100
sg260
I0
sg261
V192.168.11.2
p3899
sg263
I32
sa(dp3900
g255
I2
sg256
I138
sg10
V192.168.3.0
p3901
sg258
S''
sg259
I100
sg260
I0
sg261
V192.168.11.2
p3902
sg263
I24
sa(dp3903
g255
I2
sg256
I138
sg10
V192.168.39.0
p3904
sg258
S''
sg259
I100
sg260
I0
sg261
V192.168.11.2
p3905
sg263
I24
sa(dp3906
g255
I2
sg256
I192
sg10
V192.168.2.0
p3907
sg258
S''
sg259
I100
sg260
I0
sg261
V192.168.11.2
p3908
sg263
I24
sa(dp3909
g255
I2
sg256
I192
sg10
V192.168.6.0
p3910
sg258
S''
sg259
I100
sg260
I0
sg261
V192.168.11.2
p3911
sg263
I24
sa(dp3912
g255
I2
sg256
I192
sg10
V192.168.9.0
p3913
sg258
S''
sg259
I100
sg260
I0
sg261
V192.168.11.2
p3914
sg263
I24
sa(dp3915
g255
I2
sg256
I192
sg10
V192.168.10.0
p3916
sg258
S''
sg259
I100
sg260
I0
sg261
V192.168.11.2
p3917
sg263
I24
sa(dp3918
g255
I2
sg256
I192
sg10
V192.168.29.0
p3919
sg258
S''
sg259
I100
sg260
I0
sg261
V192.168.11.2
p3920
sg263
I24
sa(dp3921
g255
I2
sg256
I3
sg10
V10.21.3.0
p3922
sg258
S''
sg259
I100
sg260
I0
sg261
V192.168.31.1
p3923
sg263
I24
sa(dp3924
g255
I2
sg256
I2
sg10
V192.168.41.0
p3925
sg258
S''
sg259
I100
sg260
I0
sg261
V192.168.31.1
p3926
sg263
I24
sa(dp3927
g255
I0
sg256
I0
sg10
V192.168.23.0
p3928
sg258
S''
sg259
I100
sg260
I0
sg261
V192.168.23.2
p3929
sg263
I24
sa(dp3930
g255
I0
sg256
I0
sg10
V192.168.13.0
p3931
sg258
S''
sg259
I100
sg260
I0
sg261
V192.168.23.2
p3932
sg263
I24
sa(dp3933
g255
I2
sg256
I0
sg10
V192.168.31.0
p3934
sg258
S''
sg259
I100
sg260
I0
sg261
V192.168.23.2
p3935
sg263
I24
sa(dp3936
g255
I2
sg256
I0
sg10
V192.168.14.0
p3937
sg258
S''
sg259
I100
sg260
I0
sg261
V192.168.23.2
p3938
sg263
I24
sa(dp3939
g255
I0
sg256
I0
sg10
V192.168.11.0
p3940
sg258
S''
sg259
I100
sg260
I0
sg261
V192.168.23.1
p3941
sg263
I24
sa(dp3942
g255
I0
sg256
I0
sg10
V192.168.51.0
p3943
sg258
S''
sg259
I100
sg260
I0
sg261
V192.168.13.1
p3944
sg263
I24
sa(dp3945
g255
I2
sg256
I0
sg10
V192.168.12.0
p3946
sg258
S''
sg259
I100
sg260
I0
sg261
V192.168.23.1
p3947
sg263
I24
sa(dp3948
g255
I2
sg256
I0
sg10
V192.168.5.0
p3949
sg258
S''
sg259
I100
sg260
I0
sg261
V192.168.13.1
p3950
sg263
I24
sa(dp3951
g255
I2
sg256
I74
sg10
V192.168.7.0
p3952
sg258
S''
sg259
I100
sg260
I0
sg261
V192.168.23.1
p3953
sg263
I24
sa(dp3954
g255
I2
sg256
I128
sg10
V192.168.17.0
p3955
sg258
S''
sg259
I100
sg260
I0
sg261
V192.168.23.1
p3956
sg263
I24
sa(dp3957
g255
I2
sg256
I128
sg10
V192.168.27.0
p3958
sg258
S''
sg259
I100
sg260
I0
sg261
V192.168.23.1
p3959
sg263
I24
sa(dp3960
g255
I2
sg256
I128
sg10
V192.168.79.0
p3961
sg258
S''
sg259
I100
sg260
I0
sg261
V192.168.23.1
p3962
sg263
I24
sa(dp3963
g255
I2
sg256
I128
sg10
V192.168.4.0
p3964
sg258
S''
sg259
I100
sg260
I0
sg261
V192.168.13.1
p3965
sg263
I24
sa(dp3966
g255
I2
sg256
I129
sg10
V192.168.1.0
p3967
sg258
S''
sg259
I100
sg260
I0
sg261
V192.168.23.1
p3968
sg263
I24
sa(dp3969
g255
I2
sg256
I129
sg10
V192.168.99.99
p3970
sg258
S''
sg259
I100
sg260
I0
sg261
V192.168.23.1
p3971
sg263
I32
sa(dp3972
g255
I2
sg256
I138
sg10
V192.168.3.0
p3973
sg258
S''
sg259
I100
sg260
I0
sg261
V192.168.23.1
p3974
sg263
I24
sa(dp3975
g255
I2
sg256
I138
sg10
V192.168.39.0
p3976
sg258
S''
sg259
I100
sg260
I0
sg261
V192.168.23.1
p3977
sg263
I24
sa(dp3978
g255
I2
sg256
I192
sg10
V192.168.2.0
p3979
sg258
S''
sg259
I100
sg260
I0
sg261
V192.168.23.1
p3980
sg263
I24
sa(dp3981
g255
I2
sg256
I192
sg10
V192.168.6.0
p3982
sg258
S''
sg259
I100
sg260
I0
sg261
V192.168.23.1
p3983
sg263
I24
sa(dp3984
g255
I2
sg256
I192
sg10
V192.168.9.0
p3985
sg258
S''
sg259
I100
sg260
I0
sg261
V192.168.23.1
p3986
sg263
I24
sa(dp3987
g255
I2
sg256
I192
sg10
V192.168.10.0
p3988
sg258
S''
sg259
I100
sg260
I0
sg261
V192.168.23.1
p3989
sg263
I24
sa(dp3990
g255
I2
sg256
I192
sg10
V192.168.29.0
p3991
sg258
S''
sg259
I100
sg260
I0
sg261
V192.168.23.1
p3992
sg263
I24
sasg2187
(lp3993
ssa.